(lp0
(lp1
(lp2
I1
aI4
aI2
aI1
aI4
aI2
aI3
aI2
aI2
aI1
aI0
aI4
aI4
aI0
aI3
aI1
aI3
aI1
aI5
aI4
aI3
aI5
aI2
aI3
aI0
aI3
aI3
aI3
aI1
aI4
aI5
aI3
aI0
aI0
aI1
aI1
aI2
aI4
aI4
aI4
aI5
aI5
aI3
aI0
aI4
aI4
aI2
aI1
aI2
aI4
aa(lp3
I4
aI4
aI1
aI1
aI2
aI3
aI0
aI4
aI2
aI3
aI1
aI3
aI3
aI3
aI1
aI3
aI4
aI1
aI3
aI4
aI3
aI1
aI1
aI0
aI3
aI5
aI0
aI2
aI3
aI2
aI1
aI0
aI5
aI2
aI5
aI2
aI0
aI0
aI2
aI0
aI3
aI1
aI5
aI4
aI1
aI2
aI3
aI3
aI5
aI5
aa(lp4
I3
aI3
aI2
aI4
aI4
aI3
aI1
aI2
aI2
aI2
aI3
aI5
aI3
aI2
aI1
aI5
aI3
aI5
aI4
aI2
aI1
aI4
aI3
aI4
aI2
aI1
aI4
aI5
aI1
aI5
aI3
aI3
aI3
aI1
aI4
aI2
aI4
aI3
aI2
aI2
aI4
aI4
aI5
aI3
aI3
aI2
aI1
aI5
aI4
aI4
aa(lp5
I2
aI4
aI0
aI3
aI2
aI0
aI5
aI3
aI3
aI2
aI5
aI2
aI1
aI5
aI5
aI2
aI0
aI1
aI1
aI2
aI3
aI1
aI1
aI2
aI3
aI1
aI0
aI3
aI2
aI1
aI5
aI2
aI4
aI3
aI1
aI4
aI3
aI5
aI4
aI1
aI2
aI2
aI0
aI3
aI3
aI3
aI4
aI0
aI5
aI4
aa(lp6
I2
aI2
aI4
aI4
aI2
aI3
aI5
aI3
aI2
aI5
aI3
aI2
aI0
aI1
aI5
aI5
aI3
aI2
aI2
aI4
aI4
aI1
aI3
aI5
aI3
aI3
aI0
aI1
aI3
aI3
aI0
aI0
aI0
aI2
aI4
aI2
aI2
aI2
aI5
aI0
aI4
aI3
aI1
aI2
aI2
aI4
aI3
aI3
aI0
aI2
aa(lp7
I1
aI1
aI4
aI3
aI2
aI1
aI2
aI4
aI3
aI2
aI2
aI5
aI3
aI2
aI3
aI2
aI4
aI0
aI1
aI5
aI1
aI4
aI4
aI1
aI4
aI4
aI5
aI3
aI0
aI5
aI1
aI3
aI1
aI2
aI4
aI0
aI2
aI1
aI2
aI2
aI4
aI3
aI3
aI4
aI3
aI3
aI1
aI3
aI3
aI4
aa(lp8
I0
aI2
aI5
aI4
aI5
aI5
aI1
aI3
aI5
aI5
aI2
aI1
aI3
aI5
aI3
aI4
aI3
aI2
aI1
aI3
aI5
aI3
aI3
aI2
aI2
aI2
aI2
aI5
aI2
aI0
aI3
aI1
aI1
aI3
aI3
aI4
aI3
aI5
aI1
aI2
aI3
aI1
aI2
aI3
aI1
aI4
aI4
aI2
aI4
aI2
aa(lp9
I4
aI3
aI3
aI3
aI2
aI1
aI3
aI4
aI0
aI2
aI2
aI1
aI4
aI3
aI2
aI0
aI5
aI0
aI3
aI4
aI4
aI1
aI2
aI3
aI2
aI5
aI2
aI4
aI5
aI3
aI1
aI2
aI3
aI2
aI2
aI0
aI1
aI0
aI1
aI5
aI0
aI0
aI4
aI1
aI2
aI5
aI1
aI3
aI4
aI4
aa(lp10
I1
aI1
aI4
aI2
aI0
aI2
aI0
aI4
aI3
aI4
aI3
aI2
aI0
aI0
aI4
aI3
aI4
aI1
aI3
aI3
aI5
aI4
aI3
aI3
aI1
aI2
aI3
aI5
aI2
aI1
aI1
aI1
aI1
aI5
aI3
aI2
aI1
aI1
aI1
aI5
aI5
aI0
aI4
aI5
aI4
aI4
aI5
aI2
aI4
aI3
aa(lp11
I5
aI2
aI2
aI5
aI0
aI0
aI2
aI1
aI2
aI3
aI1
aI2
aI3
aI3
aI1
aI5
aI5
aI3
aI2
aI4
aI3
aI3
aI5
aI5
aI3
aI4
aI2
aI5
aI0
aI3
aI3
aI4
aI3
aI2
aI2
aI0
aI2
aI5
aI4
aI4
aI2
aI1
aI2
aI1
aI2
aI0
aI3
aI5
aI4
aI2
aa(lp12
I2
aI4
aI1
aI2
aI0
aI4
aI5
aI2
aI1
aI3
aI2
aI1
aI2
aI0
aI2
aI1
aI0
aI1
aI1
aI4
aI1
aI0
aI3
aI2
aI1
aI3
aI2
aI4
aI2
aI2
aI5
aI1
aI2
aI0
aI4
aI1
aI1
aI3
aI2
aI2
aI2
aI3
aI2
aI2
aI5
aI5
aI4
aI3
aI3
aI0
aa(lp13
I4
aI3
aI1
aI3
aI0
aI3
aI4
aI3
aI4
aI5
aI1
aI2
aI3
aI1
aI1
aI5
aI2
aI0
aI3
aI3
aI1
aI2
aI0
aI4
aI3
aI1
aI3
aI2
aI2
aI3
aI4
aI2
aI2
aI3
aI1
aI1
aI5
aI3
aI2
aI3
aI1
aI4
aI4
aI4
aI2
aI4
aI2
aI3
aI0
aI2
aa(lp14
I1
aI2
aI3
aI4
aI4
aI2
aI3
aI4
aI1
aI2
aI2
aI2
aI1
aI1
aI5
aI4
aI3
aI3
aI3
aI0
aI0
aI0
aI0
aI4
aI0
aI1
aI3
aI3
aI4
aI4
aI3
aI1
aI1
aI1
aI3
aI2
aI2
aI5
aI5
aI4
aI3
aI3
aI2
aI3
aI3
aI2
aI2
aI3
aI1
aI3
aa(lp15
I4
aI2
aI4
aI3
aI5
aI1
aI3
aI1
aI2
aI0
aI4
aI2
aI1
aI4
aI5
aI5
aI3
aI2
aI0
aI2
aI1
aI1
aI1
aI1
aI4
aI3
aI1
aI1
aI1
aI1
aI4
aI5
aI1
aI1
aI4
aI3
aI5
aI3
aI1
aI1
aI2
aI3
aI5
aI0
aI2
aI4
aI3
aI5
aI2
aI2
aa(lp16
I0
aI4
aI4
aI4
aI4
aI2
aI2
aI3
aI0
aI3
aI1
aI2
aI4
aI1
aI4
aI2
aI2
aI2
aI3
aI0
aI4
aI2
aI0
aI5
aI0
aI3
aI2
aI3
aI1
aI1
aI1
aI4
aI3
aI0
aI3
aI5
aI2
aI1
aI2
aI1
aI1
aI2
aI3
aI4
aI4
aI4
aI1
aI2
aI4
aI0
aa(lp17
I2
aI5
aI3
aI3
aI4
aI5
aI1
aI2
aI2
aI4
aI3
aI1
aI3
aI3
aI0
aI0
aI2
aI2
aI0
aI4
aI3
aI3
aI3
aI3
aI1
aI3
aI3
aI4
aI4
aI2
aI1
aI4
aI1
aI3
aI0
aI1
aI5
aI5
aI3
aI0
aI1
aI1
aI0
aI3
aI3
aI2
aI4
aI4
aI3
aI1
aa(lp18
I0
aI2
aI1
aI0
aI3
aI3
aI2
aI2
aI2
aI1
aI3
aI1
aI2
aI1
aI1
aI2
aI2
aI2
aI1
aI2
aI2
aI2
aI1
aI1
aI1
aI4
aI0
aI0
aI0
aI1
aI5
aI1
aI0
aI4
aI4
aI3
aI2
aI4
aI2
aI0
aI0
aI1
aI4
aI3
aI1
aI0
aI3
aI0
aI1
aI2
aa(lp19
I5
aI0
aI3
aI4
aI4
aI3
aI5
aI2
aI2
aI1
aI4
aI3
aI0
aI0
aI1
aI3
aI0
aI3
aI1
aI5
aI1
aI5
aI2
aI3
aI0
aI5
aI3
aI1
aI4
aI4
aI0
aI1
aI1
aI0
aI3
aI4
aI1
aI2
aI2
aI2
aI0
aI3
aI1
aI0
aI3
aI2
aI4
aI5
aI3
aI5
aa(lp20
I3
aI1
aI0
aI3
aI3
aI5
aI0
aI2
aI3
aI2
aI0
aI2
aI1
aI3
aI0
aI4
aI1
aI3
aI0
aI3
aI4
aI4
aI0
aI5
aI3
aI3
aI2
aI3
aI3
aI0
aI2
aI2
aI1
aI2
aI1
aI5
aI0
aI0
aI1
aI4
aI2
aI4
aI3
aI5
aI4
aI4
aI4
aI2
aI1
aI0
aa(lp21
I4
aI4
aI3
aI1
aI2
aI1
aI0
aI2
aI1
aI4
aI3
aI2
aI1
aI2
aI2
aI5
aI0
aI2
aI4
aI0
aI2
aI5
aI5
aI0
aI3
aI4
aI2
aI3
aI4
aI5
aI1
aI3
aI2
aI1
aI4
aI1
aI2
aI1
aI4
aI3
aI4
aI3
aI2
aI3
aI2
aI2
aI2
aI5
aI5
aI2
aa(lp22
I2
aI2
aI4
aI4
aI2
aI5
aI3
aI3
aI0
aI0
aI5
aI4
aI3
aI4
aI3
aI0
aI3
aI3
aI1
aI4
aI4
aI3
aI3
aI2
aI4
aI5
aI1
aI0
aI5
aI1
aI2
aI2
aI0
aI4
aI4
aI3
aI5
aI2
aI0
aI4
aI4
aI5
aI3
aI2
aI5
aI0
aI3
aI3
aI3
aI2
aa(lp23
I5
aI5
aI2
aI2
aI2
aI1
aI1
aI3
aI5
aI1
aI5
aI4
aI4
aI2
aI3
aI0
aI0
aI4
aI0
aI2
aI3
aI4
aI3
aI0
aI1
aI3
aI2
aI4
aI1
aI3
aI2
aI1
aI1
aI0
aI3
aI2
aI5
aI4
aI2
aI1
aI2
aI1
aI3
aI2
aI0
aI3
aI5
aI1
aI2
aI4
aa(lp24
I3
aI3
aI2
aI3
aI3
aI0
aI0
aI4
aI5
aI1
aI1
aI1
aI3
aI3
aI3
aI2
aI1
aI1
aI4
aI1
aI2
aI2
aI2
aI1
aI1
aI3
aI0
aI5
aI5
aI1
aI3
aI1
aI4
aI4
aI2
aI3
aI2
aI4
aI1
aI4
aI1
aI3
aI2
aI1
aI1
aI2
aI3
aI4
aI2
aI3
aa(lp25
I1
aI0
aI4
aI1
aI3
aI2
aI3
aI4
aI1
aI5
aI4
aI0
aI1
aI4
aI3
aI1
aI2
aI3
aI2
aI0
aI2
aI2
aI2
aI3
aI2
aI4
aI1
aI1
aI5
aI4
aI3
aI0
aI3
aI2
aI2
aI2
aI1
aI0
aI0
aI0
aI3
aI4
aI3
aI2
aI3
aI1
aI1
aI4
aI2
aI1
aaa(lp26
(lp27
I2
aI5
aI4
aI0
aI1
aI3
aI4
aI2
aI5
aI5
aI1
aI2
aI1
aI1
aI5
aI2
aI0
aI4
aI0
aI3
aI1
aI5
aI4
aI2
aI2
aI4
aI4
aI3
aI2
aI5
aI3
aI4
aI5
aI4
aI4
aI4
aI4
aI1
aI5
aI5
aI2
aI2
aI4
aI3
aI4
aI1
aI3
aI5
aI3
aI3
aa(lp28
I5
aI3
aI2
aI3
aI2
aI0
aI4
aI1
aI0
aI0
aI4
aI3
aI5
aI2
aI3
aI3
aI1
aI4
aI2
aI1
aI3
aI1
aI4
aI1
aI2
aI0
aI1
aI4
aI1
aI2
aI5
aI4
aI1
aI0
aI5
aI3
aI3
aI2
aI5
aI2
aI3
aI1
aI3
aI2
aI0
aI3
aI4
aI3
aI3
aI3
aa(lp29
I5
aI0
aI5
aI5
aI2
aI2
aI1
aI2
aI3
aI1
aI4
aI2
aI1
aI1
aI5
aI6
aI3
aI1
aI2
aI1
aI3
aI3
aI2
aI1
aI4
aI3
aI1
aI0
aI2
aI1
aI4
aI2
aI0
aI3
aI4
aI3
aI3
aI3
aI0
aI5
aI1
aI3
aI1
aI5
aI2
aI0
aI2
aI4
aI0
aI3
aa(lp30
I3
aI4
aI0
aI2
aI1
aI4
aI0
aI4
aI2
aI1
aI1
aI1
aI2
aI3
aI4
aI5
aI1
aI3
aI0
aI1
aI3
aI0
aI5
aI3
aI2
aI3
aI1
aI1
aI1
aI2
aI2
aI2
aI3
aI2
aI0
aI3
aI2
aI4
aI3
aI3
aI1
aI2
aI0
aI3
aI5
aI3
aI3
aI4
aI5
aI3
aa(lp31
I3
aI2
aI0
aI0
aI4
aI3
aI0
aI3
aI0
aI5
aI3
aI5
aI1
aI2
aI2
aI1
aI3
aI1
aI3
aI4
aI0
aI4
aI3
aI1
aI3
aI1
aI5
aI5
aI5
aI2
aI2
aI1
aI2
aI4
aI0
aI5
aI0
aI3
aI1
aI4
aI1
aI2
aI2
aI2
aI2
aI3
aI1
aI2
aI3
aI2
aa(lp32
I0
aI0
aI4
aI1
aI4
aI0
aI4
aI1
aI2
aI5
aI1
aI4
aI1
aI2
aI5
aI1
aI2
aI2
aI1
aI0
aI1
aI1
aI5
aI4
aI4
aI1
aI3
aI4
aI0
aI1
aI3
aI3
aI3
aI2
aI0
aI2
aI0
aI1
aI2
aI1
aI5
aI3
aI0
aI2
aI1
aI3
aI1
aI5
aI5
aI1
aa(lp33
I3
aI5
aI0
aI0
aI1
aI1
aI1
aI2
aI1
aI0
aI4
aI4
aI3
aI4
aI5
aI5
aI3
aI4
aI3
aI0
aI5
aI3
aI2
aI3
aI2
aI1
aI0
aI3
aI0
aI3
aI0
aI5
aI3
aI3
aI3
aI2
aI3
aI0
aI3
aI5
aI0
aI2
aI2
aI4
aI4
aI4
aI0
aI5
aI3
aI2
aa(lp34
I4
aI2
aI2
aI2
aI1
aI3
aI5
aI1
aI3
aI0
aI3
aI1
aI4
aI1
aI1
aI2
aI5
aI0
aI2
aI1
aI2
aI4
aI5
aI4
aI1
aI1
aI1
aI4
aI4
aI4
aI3
aI1
aI4
aI2
aI1
aI3
aI2
aI4
aI2
aI3
aI4
aI3
aI0
aI4
aI1
aI4
aI3
aI3
aI2
aI2
aa(lp35
I1
aI5
aI2
aI1
aI3
aI4
aI3
aI3
aI0
aI5
aI2
aI3
aI0
aI3
aI3
aI0
aI0
aI1
aI5
aI2
aI4
aI2
aI2
aI1
aI1
aI2
aI3
aI1
aI2
aI3
aI1
aI4
aI2
aI3
aI0
aI5
aI3
aI1
aI2
aI2
aI2
aI2
aI0
aI3
aI0
aI4
aI2
aI4
aI3
aI5
aa(lp36
I4
aI3
aI4
aI4
aI4
aI2
aI1
aI1
aI2
aI0
aI2
aI0
aI0
aI2
aI3
aI0
aI1
aI5
aI4
aI5
aI1
aI5
aI2
aI2
aI3
aI3
aI2
aI3
aI1
aI2
aI4
aI2
aI3
aI0
aI5
aI3
aI3
aI3
aI5
aI2
aI2
aI2
aI2
aI2
aI3
aI2
aI0
aI3
aI3
aI0
aa(lp37
I2
aI1
aI4
aI4
aI3
aI4
aI1
aI1
aI4
aI2
aI2
aI2
aI0
aI4
aI2
aI5
aI3
aI4
aI1
aI4
aI0
aI3
aI1
aI2
aI5
aI1
aI4
aI1
aI4
aI2
aI0
aI2
aI2
aI4
aI4
aI2
aI3
aI2
aI5
aI2
aI3
aI5
aI0
aI4
aI3
aI5
aI1
aI2
aI0
aI2
aa(lp38
I1
aI1
aI2
aI3
aI0
aI3
aI5
aI1
aI1
aI5
aI4
aI2
aI3
aI5
aI5
aI0
aI1
aI5
aI5
aI3
aI1
aI2
aI2
aI4
aI4
aI2
aI0
aI2
aI4
aI1
aI1
aI1
aI3
aI0
aI5
aI3
aI3
aI1
aI1
aI0
aI0
aI4
aI1
aI2
aI2
aI3
aI3
aI4
aI4
aI1
aa(lp39
I5
aI4
aI3
aI1
aI0
aI0
aI1
aI1
aI0
aI2
aI5
aI3
aI0
aI3
aI5
aI4
aI0
aI5
aI4
aI4
aI3
aI1
aI4
aI1
aI5
aI4
aI1
aI4
aI0
aI5
aI3
aI0
aI3
aI0
aI3
aI1
aI3
aI3
aI4
aI4
aI0
aI3
aI2
aI2
aI2
aI2
aI2
aI5
aI3
aI4
aa(lp40
I4
aI3
aI2
aI5
aI2
aI4
aI2
aI4
aI3
aI1
aI3
aI0
aI3
aI2
aI2
aI4
aI4
aI2
aI3
aI5
aI4
aI3
aI1
aI3
aI1
aI5
aI0
aI4
aI2
aI0
aI3
aI4
aI1
aI4
aI3
aI3
aI4
aI5
aI2
aI3
aI0
aI0
aI4
aI3
aI2
aI1
aI3
aI4
aI1
aI3
aa(lp41
I4
aI2
aI3
aI4
aI1
aI0
aI3
aI4
aI0
aI1
aI0
aI1
aI4
aI3
aI2
aI3
aI3
aI3
aI3
aI5
aI2
aI1
aI3
aI2
aI4
aI2
aI2
aI3
aI3
aI0
aI2
aI3
aI5
aI3
aI4
aI3
aI4
aI1
aI1
aI3
aI2
aI3
aI2
aI1
aI5
aI3
aI3
aI0
aI1
aI1
aa(lp42
I4
aI2
aI4
aI2
aI3
aI5
aI1
aI5
aI3
aI4
aI4
aI0
aI1
aI3
aI2
aI3
aI2
aI2
aI2
aI4
aI3
aI2
aI1
aI5
aI2
aI4
aI1
aI1
aI2
aI3
aI2
aI3
aI1
aI1
aI4
aI5
aI4
aI2
aI2
aI5
aI1
aI0
aI2
aI4
aI2
aI3
aI0
aI4
aI0
aI2
aa(lp43
I0
aI1
aI3
aI3
aI3
aI1
aI4
aI2
aI4
aI5
aI1
aI4
aI5
aI4
aI3
aI3
aI4
aI4
aI0
aI2
aI5
aI3
aI3
aI0
aI0
aI2
aI4
aI1
aI2
aI2
aI3
aI2
aI0
aI0
aI4
aI4
aI4
aI2
aI0
aI3
aI3
aI4
aI0
aI2
aI1
aI4
aI4
aI3
aI1
aI2
aa(lp44
I1
aI4
aI1
aI3
aI2
aI3
aI3
aI3
aI5
aI0
aI1
aI1
aI1
aI2
aI2
aI3
aI2
aI1
aI2
aI2
aI4
aI2
aI2
aI1
aI3
aI4
aI2
aI2
aI2
aI1
aI1
aI5
aI2
aI3
aI3
aI1
aI3
aI4
aI2
aI2
aI3
aI0
aI3
aI1
aI4
aI3
aI4
aI1
aI2
aI3
aa(lp45
I1
aI5
aI3
aI2
aI2
aI1
aI2
aI1
aI3
aI4
aI4
aI1
aI2
aI1
aI2
aI3
aI3
aI5
aI1
aI3
aI1
aI3
aI4
aI2
aI1
aI4
aI3
aI1
aI4
aI2
aI4
aI1
aI1
aI2
aI1
aI3
aI4
aI3
aI3
aI4
aI1
aI3
aI0
aI3
aI1
aI3
aI4
aI2
aI2
aI4
aa(lp46
I1
aI0
aI4
aI3
aI5
aI1
aI1
aI2
aI2
aI2
aI3
aI2
aI2
aI5
aI4
aI5
aI0
aI4
aI1
aI4
aI4
aI0
aI0
aI4
aI3
aI4
aI4
aI5
aI4
aI1
aI3
aI2
aI1
aI0
aI2
aI1
aI0
aI2
aI2
aI2
aI3
aI0
aI4
aI1
aI0
aI4
aI3
aI2
aI2
aI0
aa(lp47
I5
aI0
aI5
aI4
aI0
aI4
aI2
aI5
aI0
aI3
aI3
aI1
aI4
aI2
aI2
aI4
aI2
aI5
aI4
aI0
aI5
aI0
aI5
aI1
aI2
aI3
aI0
aI1
aI2
aI5
aI0
aI0
aI1
aI4
aI3
aI3
aI3
aI5
aI4
aI0
aI4
aI4
aI4
aI3
aI0
aI1
aI4
aI3
aI0
aI5
aa(lp48
I4
aI1
aI5
aI2
aI2
aI3
aI4
aI1
aI5
aI2
aI0
aI0
aI3
aI3
aI1
aI2
aI1
aI3
aI0
aI3
aI1
aI3
aI5
aI2
aI0
aI2
aI3
aI3
aI3
aI4
aI1
aI5
aI2
aI4
aI3
aI1
aI1
aI2
aI5
aI3
aI1
aI4
aI2
aI0
aI1
aI2
aI3
aI2
aI1
aI4
aa(lp49
I5
aI2
aI4
aI1
aI2
aI2
aI1
aI2
aI1
aI1
aI2
aI1
aI2
aI5
aI2
aI1
aI2
aI3
aI0
aI2
aI2
aI2
aI4
aI2
aI3
aI2
aI5
aI5
aI2
aI3
aI3
aI0
aI0
aI1
aI4
aI3
aI5
aI0
aI1
aI1
aI3
aI2
aI2
aI3
aI4
aI5
aI4
aI5
aI3
aI4
aa(lp50
I3
aI3
aI4
aI2
aI2
aI2
aI3
aI1
aI4
aI0
aI2
aI4
aI4
aI4
aI4
aI4
aI2
aI2
aI2
aI2
aI3
aI3
aI3
aI5
aI2
aI1
aI1
aI4
aI1
aI4
aI3
aI3
aI5
aI1
aI2
aI5
aI2
aI4
aI3
aI3
aI1
aI3
aI2
aI2
aI3
aI2
aI0
aI1
aI1
aI3
aaa(lp51
(lp52
I3
aI5
aI1
aI3
aI2
aI1
aI2
aI2
aI3
aI1
aI3
aI0
aI2
aI0
aI3
aI3
aI3
aI4
aI5
aI3
aI1
aI3
aI3
aI5
aI4
aI3
aI5
aI4
aI2
aI5
aI2
aI3
aI0
aI3
aI1
aI1
aI0
aI0
aI1
aI0
aI5
aI3
aI5
aI3
aI3
aI0
aI3
aI3
aI3
aI0
aa(lp53
I3
aI0
aI0
aI1
aI3
aI1
aI2
aI1
aI1
aI3
aI4
aI5
aI0
aI0
aI4
aI3
aI0
aI2
aI5
aI5
aI3
aI2
aI0
aI3
aI4
aI1
aI1
aI3
aI2
aI1
aI4
aI4
aI1
aI3
aI2
aI1
aI5
aI4
aI3
aI1
aI2
aI2
aI2
aI0
aI5
aI5
aI4
aI0
aI0
aI1
aa(lp54
I2
aI5
aI4
aI2
aI5
aI2
aI1
aI1
aI2
aI5
aI3
aI4
aI3
aI2
aI4
aI1
aI4
aI4
aI2
aI5
aI2
aI4
aI3
aI0
aI1
aI4
aI4
aI4
aI2
aI0
aI1
aI3
aI5
aI2
aI4
aI5
aI5
aI2
aI4
aI2
aI1
aI4
aI3
aI5
aI4
aI0
aI0
aI2
aI0
aI2
aa(lp55
I4
aI1
aI1
aI2
aI3
aI0
aI4
aI5
aI4
aI3
aI3
aI1
aI2
aI5
aI1
aI3
aI5
aI2
aI3
aI3
aI1
aI5
aI1
aI4
aI1
aI1
aI0
aI4
aI4
aI4
aI4
aI1
aI1
aI5
aI3
aI1
aI4
aI1
aI1
aI5
aI2
aI0
aI2
aI1
aI4
aI5
aI3
aI2
aI2
aI3
aa(lp56
I2
aI1
aI1
aI1
aI2
aI0
aI1
aI2
aI1
aI4
aI3
aI2
aI2
aI1
aI5
aI0
aI0
aI1
aI3
aI0
aI5
aI0
aI3
aI3
aI3
aI5
aI3
aI3
aI3
aI1
aI2
aI2
aI1
aI1
aI3
aI4
aI3
aI2
aI1
aI5
aI2
aI1
aI3
aI4
aI3
aI4
aI3
aI5
aI4
aI1
aa(lp57
I3
aI1
aI1
aI0
aI3
aI5
aI2
aI4
aI3
aI3
aI3
aI4
aI1
aI3
aI1
aI3
aI5
aI5
aI5
aI1
aI3
aI1
aI2
aI0
aI4
aI1
aI0
aI0
aI1
aI5
aI3
aI2
aI4
aI4
aI0
aI0
aI1
aI3
aI3
aI4
aI5
aI4
aI4
aI3
aI4
aI3
aI4
aI3
aI4
aI2
aa(lp58
I3
aI3
aI0
aI3
aI0
aI2
aI1
aI1
aI1
aI1
aI3
aI0
aI2
aI1
aI5
aI2
aI4
aI1
aI2
aI0
aI5
aI4
aI4
aI3
aI2
aI0
aI3
aI2
aI3
aI0
aI4
aI4
aI1
aI3
aI2
aI3
aI0
aI3
aI1
aI4
aI2
aI2
aI4
aI2
aI1
aI3
aI0
aI1
aI5
aI5
aa(lp59
I1
aI1
aI5
aI2
aI4
aI3
aI4
aI2
aI5
aI4
aI4
aI2
aI4
aI2
aI1
aI5
aI5
aI1
aI3
aI4
aI2
aI1
aI5
aI4
aI1
aI2
aI4
aI2
aI4
aI1
aI4
aI0
aI2
aI3
aI1
aI5
aI2
aI5
aI0
aI1
aI0
aI4
aI3
aI2
aI5
aI0
aI0
aI3
aI0
aI3
aa(lp60
I5
aI1
aI5
aI1
aI4
aI0
aI1
aI4
aI1
aI2
aI3
aI4
aI5
aI3
aI3
aI3
aI4
aI3
aI4
aI4
aI3
aI5
aI3
aI2
aI3
aI3
aI2
aI3
aI0
aI2
aI2
aI2
aI3
aI2
aI5
aI4
aI4
aI2
aI3
aI2
aI4
aI4
aI3
aI4
aI1
aI3
aI2
aI3
aI0
aI2
aa(lp61
I2
aI1
aI3
aI2
aI1
aI3
aI2
aI1
aI1
aI4
aI1
aI5
aI2
aI4
aI5
aI4
aI1
aI4
aI1
aI4
aI2
aI3
aI3
aI3
aI3
aI0
aI3
aI3
aI1
aI2
aI4
aI2
aI1
aI1
aI1
aI0
aI5
aI3
aI2
aI4
aI3
aI0
aI2
aI5
aI3
aI1
aI1
aI5
aI0
aI5
aa(lp62
I2
aI3
aI3
aI3
aI2
aI4
aI1
aI1
aI0
aI4
aI2
aI1
aI4
aI1
aI3
aI5
aI5
aI1
aI2
aI1
aI3
aI4
aI1
aI3
aI1
aI5
aI5
aI4
aI1
aI3
aI3
aI1
aI4
aI0
aI1
aI2
aI0
aI3
aI3
aI3
aI0
aI4
aI3
aI3
aI1
aI0
aI4
aI2
aI0
aI3
aa(lp63
I1
aI5
aI4
aI5
aI4
aI4
aI2
aI3
aI2
aI1
aI4
aI2
aI3
aI4
aI4
aI2
aI4
aI3
aI2
aI3
aI2
aI1
aI2
aI4
aI4
aI2
aI4
aI1
aI4
aI2
aI1
aI1
aI4
aI5
aI4
aI1
aI1
aI2
aI4
aI0
aI5
aI3
aI0
aI0
aI5
aI1
aI2
aI5
aI4
aI2
aa(lp64
I3
aI2
aI1
aI4
aI1
aI3
aI2
aI1
aI2
aI3
aI2
aI2
aI1
aI4
aI5
aI3
aI1
aI2
aI3
aI4
aI2
aI5
aI4
aI0
aI1
aI5
aI4
aI2
aI2
aI3
aI2
aI5
aI1
aI3
aI2
aI1
aI1
aI4
aI5
aI5
aI1
aI1
aI0
aI5
aI4
aI2
aI0
aI4
aI1
aI0
aa(lp65
I0
aI4
aI2
aI2
aI3
aI3
aI4
aI4
aI4
aI4
aI1
aI3
aI2
aI1
aI3
aI0
aI3
aI3
aI5
aI3
aI2
aI0
aI0
aI0
aI2
aI0
aI3
aI4
aI3
aI3
aI4
aI5
aI4
aI1
aI2
aI2
aI4
aI3
aI4
aI1
aI5
aI0
aI0
aI1
aI3
aI2
aI2
aI1
aI0
aI2
aa(lp66
I2
aI1
aI4
aI4
aI4
aI0
aI3
aI4
aI3
aI1
aI0
aI4
aI1
aI1
aI2
aI5
aI3
aI0
aI3
aI3
aI4
aI0
aI2
aI1
aI3
aI4
aI1
aI2
aI1
aI1
aI4
aI1
aI1
aI1
aI1
aI5
aI2
aI2
aI3
aI1
aI0
aI1
aI2
aI2
aI2
aI3
aI4
aI1
aI2
aI0
aa(lp67
I0
aI4
aI3
aI5
aI3
aI3
aI4
aI0
aI1
aI1
aI5
aI2
aI3
aI3
aI2
aI2
aI1
aI3
aI2
aI0
aI1
aI3
aI2
aI2
aI5
aI3
aI4
aI1
aI1
aI1
aI2
aI3
aI5
aI1
aI1
aI4
aI0
aI2
aI2
aI2
aI3
aI3
aI2
aI1
aI1
aI4
aI0
aI3
aI1
aI0
aa(lp68
I5
aI5
aI3
aI0
aI2
aI0
aI3
aI5
aI2
aI5
aI5
aI0
aI3
aI2
aI4
aI4
aI4
aI5
aI2
aI5
aI1
aI1
aI0
aI3
aI3
aI3
aI5
aI4
aI2
aI3
aI4
aI4
aI4
aI0
aI3
aI3
aI0
aI0
aI3
aI1
aI2
aI3
aI0
aI5
aI3
aI2
aI3
aI3
aI3
aI4
aa(lp69
I2
aI3
aI3
aI3
aI5
aI3
aI0
aI4
aI2
aI3
aI4
aI5
aI3
aI2
aI1
aI4
aI1
aI1
aI2
aI4
aI2
aI2
aI2
aI5
aI4
aI5
aI5
aI3
aI3
aI3
aI4
aI2
aI4
aI1
aI3
aI0
aI2
aI3
aI3
aI3
aI2
aI1
aI2
aI1
aI4
aI4
aI0
aI4
aI5
aI1
aa(lp70
I2
aI1
aI5
aI3
aI4
aI5
aI4
aI2
aI4
aI2
aI2
aI1
aI3
aI3
aI0
aI0
aI3
aI2
aI4
aI1
aI1
aI3
aI4
aI2
aI4
aI2
aI1
aI4
aI4
aI5
aI3
aI1
aI2
aI3
aI2
aI3
aI4
aI5
aI4
aI5
aI3
aI2
aI1
aI3
aI1
aI3
aI2
aI1
aI0
aI0
aa(lp71
I2
aI0
aI2
aI1
aI4
aI2
aI4
aI1
aI4
aI2
aI5
aI3
aI0
aI3
aI3
aI3
aI4
aI3
aI4
aI2
aI3
aI3
aI3
aI0
aI2
aI4
aI2
aI4
aI3
aI3
aI4
aI1
aI3
aI1
aI3
aI1
aI1
aI5
aI2
aI3
aI0
aI5
aI0
aI1
aI2
aI5
aI4
aI5
aI3
aI5
aa(lp72
I3
aI2
aI2
aI4
aI1
aI4
aI4
aI0
aI4
aI2
aI0
aI1
aI4
aI0
aI3
aI4
aI5
aI1
aI1
aI2
aI4
aI3
aI0
aI2
aI3
aI1
aI0
aI0
aI2
aI3
aI2
aI3
aI5
aI4
aI5
aI1
aI3
aI4
aI3
aI3
aI3
aI1
aI5
aI3
aI2
aI3
aI2
aI4
aI2
aI4
aa(lp73
I4
aI1
aI5
aI4
aI2
aI1
aI0
aI1
aI2
aI3
aI0
aI1
aI0
aI4
aI0
aI2
aI2
aI2
aI5
aI4
aI1
aI4
aI5
aI1
aI2
aI2
aI2
aI3
aI2
aI4
aI1
aI4
aI3
aI1
aI3
aI3
aI0
aI2
aI2
aI5
aI1
aI2
aI3
aI5
aI1
aI1
aI1
aI1
aI2
aI1
aa(lp74
I4
aI3
aI3
aI2
aI2
aI1
aI1
aI2
aI2
aI3
aI4
aI3
aI3
aI2
aI2
aI4
aI3
aI2
aI3
aI1
aI0
aI2
aI2
aI3
aI0
aI2
aI2
aI5
aI5
aI1
aI5
aI2
aI5
aI1
aI5
aI1
aI1
aI2
aI2
aI4
aI3
aI3
aI1
aI0
aI4
aI3
aI0
aI3
aI1
aI2
aa(lp75
I4
aI0
aI3
aI5
aI0
aI1
aI3
aI0
aI1
aI4
aI5
aI4
aI2
aI5
aI1
aI4
aI1
aI1
aI2
aI2
aI5
aI3
aI2
aI2
aI2
aI3
aI0
aI3
aI0
aI4
aI4
aI1
aI4
aI4
aI3
aI2
aI1
aI3
aI4
aI4
aI2
aI5
aI3
aI2
aI4
aI4
aI2
aI2
aI2
aI4
aaa(lp76
(lp77
I1
aI3
aI2
aI2
aI2
aI3
aI0
aI2
aI1
aI2
aI2
aI4
aI3
aI1
aI1
aI2
aI4
aI2
aI2
aI0
aI2
aI2
aI2
aI3
aI2
aI1
aI2
aI2
aI4
aI3
aI3
aI2
aI1
aI3
aI3
aI0
aI2
aI3
aI1
aI2
aI1
aI5
aI5
aI5
aI2
aI5
aI1
aI4
aI4
aI2
aa(lp78
I1
aI1
aI3
aI1
aI1
aI1
aI1
aI5
aI2
aI4
aI4
aI4
aI0
aI3
aI0
aI5
aI2
aI4
aI1
aI3
aI5
aI2
aI2
aI4
aI2
aI0
aI2
aI1
aI3
aI3
aI4
aI2
aI3
aI4
aI5
aI5
aI2
aI2
aI5
aI3
aI0
aI4
aI2
aI3
aI2
aI4
aI0
aI3
aI2
aI2
aa(lp79
I4
aI3
aI4
aI2
aI1
aI2
aI5
aI3
aI0
aI3
aI4
aI2
aI4
aI0
aI2
aI0
aI3
aI4
aI4
aI2
aI5
aI1
aI2
aI3
aI4
aI5
aI3
aI5
aI0
aI0
aI1
aI5
aI2
aI4
aI2
aI2
aI1
aI3
aI0
aI3
aI2
aI2
aI2
aI4
aI3
aI0
aI2
aI1
aI4
aI4
aa(lp80
I2
aI5
aI5
aI2
aI1
aI5
aI5
aI2
aI4
aI2
aI0
aI4
aI4
aI3
aI3
aI5
aI4
aI4
aI1
aI0
aI5
aI0
aI2
aI2
aI3
aI2
aI2
aI1
aI5
aI5
aI5
aI4
aI4
aI4
aI5
aI2
aI5
aI5
aI1
aI2
aI3
aI1
aI2
aI1
aI2
aI1
aI2
aI2
aI2
aI1
aa(lp81
I4
aI0
aI5
aI1
aI3
aI2
aI1
aI2
aI3
aI2
aI4
aI3
aI3
aI4
aI0
aI1
aI5
aI3
aI0
aI0
aI0
aI2
aI0
aI1
aI1
aI4
aI1
aI4
aI2
aI4
aI2
aI0
aI3
aI2
aI2
aI1
aI3
aI2
aI2
aI1
aI0
aI4
aI5
aI1
aI4
aI1
aI3
aI2
aI5
aI4
aa(lp82
I1
aI4
aI0
aI4
aI2
aI5
aI0
aI2
aI3
aI3
aI2
aI3
aI0
aI4
aI3
aI2
aI1
aI2
aI2
aI3
aI0
aI4
aI4
aI2
aI4
aI4
aI2
aI0
aI3
aI0
aI4
aI3
aI2
aI4
aI4
aI1
aI3
aI3
aI2
aI3
aI3
aI2
aI1
aI2
aI1
aI1
aI3
aI3
aI2
aI1
aa(lp83
I2
aI2
aI4
aI2
aI3
aI3
aI1
aI2
aI2
aI0
aI4
aI1
aI2
aI2
aI4
aI2
aI2
aI5
aI2
aI2
aI2
aI4
aI2
aI4
aI2
aI4
aI4
aI5
aI2
aI0
aI3
aI3
aI2
aI4
aI0
aI1
aI3
aI0
aI1
aI3
aI4
aI1
aI4
aI2
aI3
aI2
aI1
aI0
aI3
aI1
aa(lp84
I3
aI1
aI2
aI3
aI2
aI5
aI4
aI2
aI4
aI2
aI3
aI5
aI3
aI2
aI2
aI1
aI3
aI2
aI2
aI2
aI2
aI0
aI1
aI3
aI2
aI3
aI2
aI2
aI1
aI3
aI0
aI2
aI4
aI5
aI2
aI5
aI1
aI1
aI2
aI1
aI2
aI2
aI2
aI5
aI1
aI5
aI1
aI5
aI1
aI1
aa(lp85
I1
aI3
aI2
aI3
aI1
aI4
aI1
aI4
aI4
aI2
aI2
aI0
aI4
aI4
aI0
aI1
aI2
aI2
aI2
aI3
aI3
aI1
aI1
aI0
aI5
aI3
aI2
aI1
aI4
aI1
aI4
aI1
aI3
aI5
aI3
aI0
aI0
aI5
aI2
aI2
aI1
aI4
aI2
aI3
aI0
aI4
aI4
aI0
aI4
aI3
aa(lp86
I4
aI4
aI3
aI1
aI4
aI1
aI2
aI2
aI1
aI3
aI2
aI3
aI1
aI3
aI5
aI4
aI3
aI0
aI1
aI4
aI1
aI2
aI1
aI5
aI4
aI3
aI2
aI3
aI3
aI4
aI1
aI3
aI3
aI4
aI3
aI3
aI3
aI2
aI3
aI3
aI3
aI2
aI2
aI3
aI2
aI3
aI4
aI3
aI1
aI5
aa(lp87
I2
aI4
aI5
aI3
aI0
aI3
aI2
aI4
aI4
aI4
aI0
aI0
aI0
aI1
aI2
aI0
aI3
aI2
aI4
aI5
aI3
aI3
aI3
aI1
aI1
aI2
aI3
aI2
aI3
aI2
aI3
aI4
aI5
aI2
aI2
aI1
aI4
aI2
aI1
aI2
aI0
aI4
aI5
aI0
aI3
aI3
aI1
aI3
aI5
aI2
aa(lp88
I5
aI2
aI2
aI2
aI3
aI2
aI2
aI5
aI3
aI0
aI3
aI5
aI1
aI2
aI2
aI1
aI4
aI5
aI3
aI2
aI5
aI2
aI1
aI3
aI3
aI0
aI4
aI1
aI1
aI3
aI4
aI3
aI2
aI4
aI4
aI3
aI5
aI0
aI3
aI5
aI1
aI3
aI3
aI4
aI5
aI2
aI3
aI4
aI1
aI1
aa(lp89
I0
aI1
aI2
aI3
aI2
aI1
aI3
aI4
aI2
aI4
aI2
aI5
aI0
aI1
aI3
aI5
aI0
aI3
aI2
aI2
aI4
aI2
aI4
aI1
aI4
aI3
aI5
aI5
aI3
aI1
aI3
aI2
aI3
aI0
aI1
aI2
aI1
aI5
aI5
aI5
aI3
aI1
aI2
aI1
aI2
aI3
aI2
aI2
aI4
aI2
aa(lp90
I1
aI1
aI5
aI0
aI2
aI3
aI4
aI1
aI2
aI3
aI3
aI4
aI4
aI1
aI5
aI2
aI1
aI0
aI2
aI4
aI0
aI3
aI5
aI2
aI3
aI4
aI1
aI1
aI1
aI4
aI5
aI4
aI5
aI2
aI3
aI2
aI1
aI3
aI1
aI3
aI2
aI2
aI2
aI4
aI4
aI2
aI4
aI3
aI0
aI2
aa(lp91
I3
aI1
aI4
aI2
aI2
aI4
aI0
aI3
aI4
aI2
aI4
aI1
aI1
aI5
aI2
aI3
aI4
aI1
aI3
aI1
aI4
aI5
aI2
aI3
aI3
aI3
aI3
aI4
aI0
aI5
aI2
aI3
aI1
aI3
aI5
aI2
aI1
aI1
aI1
aI5
aI3
aI4
aI3
aI0
aI5
aI0
aI4
aI2
aI3
aI3
aa(lp92
I2
aI3
aI3
aI4
aI2
aI4
aI3
aI0
aI0
aI2
aI5
aI3
aI3
aI0
aI4
aI2
aI3
aI3
aI2
aI3
aI0
aI1
aI3
aI2
aI1
aI4
aI1
aI3
aI3
aI0
aI4
aI2
aI1
aI3
aI3
aI0
aI5
aI2
aI3
aI1
aI4
aI2
aI3
aI5
aI4
aI1
aI5
aI3
aI3
aI2
aa(lp93
I3
aI0
aI5
aI2
aI0
aI4
aI0
aI1
aI2
aI1
aI2
aI3
aI4
aI1
aI2
aI1
aI4
aI3
aI2
aI2
aI5
aI2
aI3
aI0
aI2
aI5
aI5
aI2
aI2
aI1
aI4
aI0
aI5
aI1
aI3
aI2
aI3
aI0
aI3
aI1
aI5
aI1
aI0
aI2
aI2
aI0
aI1
aI2
aI0
aI2
aa(lp94
I4
aI0
aI2
aI3
aI5
aI3
aI2
aI2
aI1
aI0
aI2
aI4
aI3
aI1
aI2
aI5
aI2
aI4
aI3
aI3
aI3
aI2
aI5
aI3
aI1
aI5
aI2
aI2
aI3
aI3
aI1
aI3
aI0
aI4
aI4
aI4
aI3
aI0
aI3
aI1
aI0
aI4
aI3
aI1
aI2
aI2
aI0
aI4
aI2
aI0
aa(lp95
I1
aI3
aI2
aI0
aI4
aI4
aI5
aI2
aI3
aI4
aI5
aI1
aI2
aI5
aI2
aI2
aI4
aI1
aI3
aI4
aI0
aI2
aI1
aI1
aI5
aI3
aI0
aI1
aI4
aI2
aI4
aI3
aI5
aI2
aI1
aI5
aI4
aI1
aI2
aI2
aI3
aI4
aI1
aI2
aI0
aI4
aI0
aI0
aI5
aI0
aa(lp96
I4
aI1
aI3
aI3
aI4
aI3
aI1
aI2
aI1
aI0
aI3
aI0
aI2
aI3
aI4
aI5
aI4
aI1
aI1
aI3
aI3
aI0
aI0
aI4
aI1
aI1
aI1
aI1
aI2
aI3
aI2
aI0
aI0
aI2
aI0
aI4
aI4
aI2
aI2
aI1
aI1
aI1
aI4
aI4
aI3
aI3
aI4
aI3
aI2
aI3
aa(lp97
I4
aI4
aI2
aI1
aI5
aI4
aI0
aI5
aI2
aI1
aI2
aI4
aI0
aI5
aI2
aI3
aI3
aI3
aI2
aI1
aI3
aI1
aI1
aI3
aI2
aI5
aI3
aI3
aI1
aI1
aI3
aI3
aI5
aI3
aI5
aI2
aI2
aI3
aI2
aI4
aI2
aI2
aI4
aI1
aI5
aI2
aI1
aI4
aI3
aI4
aa(lp98
I2
aI1
aI4
aI3
aI4
aI5
aI5
aI3
aI2
aI4
aI3
aI4
aI4
aI2
aI5
aI2
aI4
aI4
aI2
aI3
aI1
aI3
aI1
aI2
aI2
aI0
aI2
aI4
aI3
aI5
aI1
aI5
aI3
aI4
aI0
aI2
aI2
aI1
aI5
aI0
aI2
aI3
aI3
aI2
aI2
aI4
aI2
aI2
aI3
aI0
aa(lp99
I0
aI2
aI2
aI4
aI1
aI3
aI1
aI4
aI3
aI3
aI3
aI2
aI4
aI2
aI1
aI1
aI4
aI3
aI2
aI3
aI2
aI0
aI2
aI4
aI2
aI3
aI3
aI3
aI1
aI2
aI1
aI1
aI3
aI2
aI3
aI1
aI5
aI3
aI4
aI3
aI0
aI2
aI4
aI1
aI5
aI0
aI3
aI2
aI3
aI0
aa(lp100
I4
aI1
aI2
aI0
aI1
aI3
aI0
aI2
aI3
aI1
aI4
aI4
aI2
aI3
aI3
aI0
aI2
aI0
aI5
aI1
aI2
aI4
aI4
aI3
aI1
aI2
aI0
aI2
aI0
aI1
aI1
aI3
aI0
aI3
aI2
aI2
aI1
aI2
aI4
aI1
aI1
aI4
aI3
aI3
aI2
aI5
aI3
aI2
aI0
aI4
aaa(lp101
(lp102
I1
aI0
aI3
aI2
aI2
aI1
aI4
aI1
aI4
aI1
aI3
aI1
aI5
aI2
aI0
aI2
aI4
aI3
aI0
aI4
aI1
aI3
aI3
aI2
aI4
aI3
aI1
aI0
aI2
aI3
aI2
aI2
aI0
aI5
aI3
aI1
aI0
aI5
aI4
aI4
aI2
aI3
aI4
aI5
aI2
aI0
aI4
aI1
aI2
aI4
aa(lp103
I3
aI3
aI0
aI4
aI5
aI3
aI4
aI4
aI2
aI0
aI2
aI4
aI3
aI3
aI1
aI3
aI1
aI3
aI5
aI5
aI3
aI2
aI1
aI1
aI0
aI1
aI1
aI4
aI1
aI3
aI0
aI0
aI0
aI4
aI0
aI3
aI5
aI3
aI2
aI2
aI4
aI4
aI0
aI0
aI2
aI3
aI1
aI2
aI5
aI4
aa(lp104
I2
aI1
aI4
aI5
aI1
aI1
aI3
aI0
aI4
aI4
aI4
aI2
aI0
aI2
aI2
aI2
aI2
aI3
aI2
aI3
aI2
aI3
aI2
aI1
aI2
aI5
aI2
aI4
aI4
aI3
aI1
aI2
aI3
aI4
aI1
aI4
aI4
aI1
aI2
aI3
aI4
aI3
aI2
aI1
aI5
aI5
aI1
aI4
aI1
aI2
aa(lp105
I2
aI2
aI3
aI4
aI3
aI2
aI2
aI3
aI0
aI2
aI4
aI2
aI1
aI2
aI5
aI3
aI0
aI3
aI5
aI1
aI2
aI3
aI3
aI2
aI0
aI2
aI2
aI2
aI3
aI3
aI2
aI4
aI2
aI4
aI3
aI2
aI1
aI0
aI4
aI4
aI2
aI3
aI2
aI1
aI3
aI4
aI4
aI2
aI3
aI1
aa(lp106
I2
aI3
aI2
aI0
aI2
aI2
aI5
aI0
aI5
aI1
aI4
aI3
aI1
aI4
aI4
aI4
aI3
aI1
aI2
aI4
aI2
aI3
aI1
aI4
aI2
aI2
aI5
aI2
aI3
aI3
aI1
aI0
aI3
aI5
aI1
aI3
aI4
aI0
aI2
aI5
aI3
aI0
aI1
aI3
aI2
aI5
aI0
aI3
aI0
aI4
aa(lp107
I1
aI1
aI1
aI3
aI5
aI3
aI1
aI3
aI3
aI2
aI4
aI3
aI5
aI5
aI3
aI4
aI0
aI3
aI4
aI3
aI0
aI3
aI2
aI1
aI3
aI3
aI5
aI3
aI3
aI5
aI2
aI3
aI4
aI2
aI1
aI1
aI2
aI1
aI3
aI1
aI2
aI2
aI4
aI3
aI3
aI2
aI1
aI2
aI4
aI4
aa(lp108
I5
aI4
aI1
aI1
aI2
aI2
aI2
aI2
aI0
aI4
aI1
aI1
aI3
aI4
aI3
aI3
aI2
aI2
aI3
aI3
aI2
aI3
aI1
aI2
aI1
aI4
aI4
aI2
aI1
aI0
aI1
aI1
aI2
aI3
aI4
aI2
aI4
aI2
aI3
aI0
aI5
aI3
aI1
aI1
aI3
aI1
aI2
aI1
aI2
aI1
aa(lp109
I2
aI1
aI5
aI2
aI0
aI3
aI2
aI0
aI4
aI1
aI4
aI2
aI5
aI5
aI3
aI2
aI1
aI0
aI3
aI3
aI2
aI1
aI0
aI3
aI1
aI3
aI0
aI3
aI3
aI3
aI1
aI1
aI3
aI2
aI1
aI0
aI3
aI4
aI5
aI4
aI1
aI1
aI2
aI1
aI1
aI5
aI1
aI5
aI5
aI1
aa(lp110
I1
aI1
aI1
aI2
aI3
aI4
aI2
aI3
aI4
aI0
aI3
aI5
aI1
aI4
aI3
aI3
aI1
aI4
aI3
aI2
aI5
aI3
aI1
aI0
aI2
aI2
aI3
aI2
aI1
aI1
aI4
aI1
aI3
aI3
aI3
aI2
aI0
aI3
aI3
aI0
aI4
aI2
aI0
aI1
aI1
aI3
aI1
aI2
aI4
aI2
aa(lp111
I0
aI2
aI3
aI3
aI0
aI2
aI3
aI5
aI0
aI2
aI3
aI4
aI3
aI0
aI2
aI2
aI4
aI1
aI3
aI3
aI1
aI2
aI4
aI0
aI3
aI4
aI0
aI1
aI0
aI1
aI2
aI2
aI5
aI1
aI2
aI2
aI3
aI3
aI1
aI3
aI4
aI4
aI3
aI2
aI2
aI4
aI2
aI2
aI4
aI2
aa(lp112
I3
aI3
aI3
aI2
aI0
aI3
aI1
aI4
aI2
aI1
aI3
aI4
aI4
aI2
aI2
aI1
aI2
aI5
aI3
aI4
aI2
aI5
aI2
aI4
aI0
aI2
aI3
aI2
aI1
aI2
aI2
aI5
aI0
aI1
aI0
aI5
aI3
aI2
aI5
aI5
aI5
aI5
aI3
aI5
aI0
aI4
aI2
aI4
aI3
aI4
aa(lp113
I3
aI3
aI2
aI2
aI3
aI3
aI5
aI3
aI1
aI2
aI1
aI1
aI2
aI0
aI3
aI1
aI0
aI4
aI1
aI2
aI1
aI0
aI0
aI1
aI5
aI5
aI1
aI1
aI0
aI1
aI3
aI3
aI3
aI1
aI4
aI2
aI2
aI4
aI3
aI5
aI5
aI2
aI1
aI4
aI1
aI5
aI5
aI1
aI4
aI3
aa(lp114
I3
aI0
aI3
aI4
aI0
aI4
aI4
aI3
aI3
aI4
aI4
aI4
aI3
aI1
aI3
aI3
aI2
aI3
aI3
aI5
aI2
aI4
aI2
aI4
aI0
aI3
aI1
aI2
aI1
aI3
aI4
aI2
aI3
aI0
aI5
aI0
aI3
aI5
aI2
aI3
aI2
aI4
aI3
aI3
aI4
aI3
aI1
aI2
aI3
aI1
aa(lp115
I5
aI3
aI4
aI2
aI0
aI4
aI4
aI2
aI5
aI2
aI1
aI4
aI4
aI3
aI3
aI3
aI2
aI3
aI1
aI2
aI3
aI2
aI3
aI1
aI2
aI0
aI3
aI3
aI0
aI1
aI3
aI2
aI2
aI0
aI3
aI3
aI1
aI0
aI2
aI5
aI2
aI2
aI4
aI2
aI3
aI2
aI3
aI3
aI0
aI5
aa(lp116
I3
aI4
aI3
aI2
aI4
aI2
aI5
aI5
aI3
aI3
aI4
aI1
aI3
aI1
aI2
aI1
aI3
aI3
aI2
aI0
aI3
aI1
aI3
aI1
aI4
aI3
aI2
aI4
aI3
aI1
aI4
aI4
aI4
aI3
aI5
aI2
aI5
aI0
aI5
aI0
aI2
aI2
aI0
aI1
aI1
aI4
aI5
aI2
aI4
aI2
aa(lp117
I3
aI2
aI0
aI5
aI0
aI1
aI2
aI2
aI2
aI2
aI4
aI5
aI4
aI5
aI4
aI2
aI2
aI2
aI1
aI4
aI2
aI1
aI3
aI2
aI3
aI0
aI2
aI2
aI2
aI0
aI4
aI5
aI5
aI3
aI1
aI4
aI0
aI4
aI3
aI0
aI3
aI2
aI2
aI1
aI5
aI2
aI3
aI2
aI3
aI2
aa(lp118
I5
aI0
aI4
aI1
aI2
aI2
aI5
aI3
aI0
aI0
aI3
aI0
aI2
aI4
aI4
aI2
aI4
aI3
aI0
aI3
aI3
aI3
aI5
aI1
aI0
aI5
aI0
aI2
aI1
aI4
aI0
aI2
aI5
aI2
aI1
aI3
aI2
aI1
aI2
aI1
aI3
aI1
aI2
aI4
aI3
aI1
aI2
aI2
aI4
aI1
aa(lp119
I5
aI1
aI2
aI3
aI5
aI4
aI1
aI5
aI5
aI2
aI3
aI2
aI3
aI4
aI3
aI3
aI1
aI1
aI1
aI5
aI4
aI2
aI1
aI5
aI0
aI1
aI5
aI5
aI1
aI2
aI0
aI2
aI5
aI3
aI2
aI1
aI2
aI3
aI5
aI2
aI4
aI3
aI2
aI4
aI3
aI3
aI5
aI4
aI1
aI3
aa(lp120
I4
aI3
aI2
aI2
aI2
aI2
aI0
aI5
aI2
aI4
aI1
aI2
aI4
aI3
aI2
aI1
aI5
aI3
aI0
aI2
aI2
aI4
aI5
aI4
aI0
aI4
aI3
aI4
aI1
aI5
aI4
aI4
aI0
aI5
aI5
aI5
aI4
aI4
aI3
aI3
aI5
aI0
aI3
aI1
aI1
aI3
aI4
aI3
aI1
aI3
aa(lp121
I1
aI0
aI4
aI1
aI2
aI2
aI2
aI2
aI4
aI5
aI4
aI2
aI3
aI5
aI1
aI3
aI3
aI2
aI3
aI4
aI5
aI2
aI5
aI4
aI4
aI1
aI4
aI1
aI3
aI5
aI2
aI4
aI5
aI0
aI0
aI3
aI2
aI5
aI2
aI2
aI4
aI3
aI2
aI2
aI4
aI1
aI4
aI3
aI4
aI3
aa(lp122
I1
aI3
aI5
aI1
aI0
aI3
aI3
aI2
aI2
aI4
aI3
aI1
aI5
aI1
aI0
aI1
aI0
aI1
aI0
aI3
aI3
aI4
aI1
aI5
aI4
aI3
aI2
aI2
aI5
aI2
aI4
aI3
aI4
aI2
aI0
aI5
aI2
aI4
aI0
aI2
aI3
aI4
aI3
aI2
aI3
aI1
aI2
aI3
aI2
aI1
aa(lp123
I1
aI2
aI2
aI3
aI2
aI3
aI2
aI2
aI1
aI2
aI0
aI4
aI4
aI3
aI1
aI0
aI4
aI2
aI2
aI4
aI5
aI3
aI2
aI2
aI1
aI4
aI2
aI4
aI1
aI1
aI0
aI1
aI3
aI4
aI1
aI0
aI2
aI1
aI4
aI5
aI1
aI1
aI0
aI2
aI3
aI3
aI3
aI5
aI2
aI2
aa(lp124
I5
aI1
aI0
aI0
aI5
aI1
aI0
aI2
aI4
aI2
aI1
aI1
aI4
aI3
aI1
aI5
aI2
aI2
aI1
aI1
aI4
aI0
aI1
aI1
aI2
aI0
aI3
aI4
aI2
aI3
aI4
aI1
aI2
aI0
aI1
aI3
aI5
aI3
aI3
aI3
aI4
aI5
aI1
aI5
aI5
aI5
aI4
aI5
aI3
aI3
aa(lp125
I1
aI5
aI3
aI3
aI5
aI4
aI0
aI3
aI4
aI3
aI1
aI1
aI5
aI3
aI3
aI0
aI2
aI2
aI5
aI2
aI2
aI1
aI0
aI3
aI3
aI5
aI4
aI4
aI3
aI0
aI3
aI5
aI3
aI1
aI0
aI1
aI0
aI1
aI3
aI2
aI1
aI0
aI3
aI5
aI1
aI3
aI5
aI1
aI1
aI4
aaa(lp126
(lp127
I5
aI4
aI1
aI4
aI5
aI3
aI4
aI0
aI2
aI0
aI4
aI1
aI1
aI2
aI2
aI3
aI3
aI2
aI4
aI2
aI3
aI1
aI2
aI4
aI4
aI1
aI0
aI3
aI2
aI4
aI3
aI5
aI5
aI5
aI2
aI2
aI5
aI4
aI2
aI1
aI4
aI4
aI1
aI1
aI1
aI3
aI5
aI2
aI3
aI4
aa(lp128
I0
aI3
aI4
aI4
aI4
aI1
aI3
aI5
aI5
aI3
aI2
aI1
aI1
aI3
aI2
aI3
aI2
aI0
aI5
aI0
aI4
aI3
aI2
aI3
aI2
aI1
aI3
aI1
aI2
aI2
aI0
aI1
aI4
aI1
aI5
aI2
aI2
aI4
aI4
aI3
aI4
aI1
aI4
aI4
aI3
aI3
aI4
aI1
aI3
aI4
aa(lp129
I1
aI2
aI2
aI2
aI2
aI4
aI1
aI0
aI2
aI2
aI0
aI2
aI5
aI1
aI0
aI3
aI2
aI0
aI4
aI3
aI2
aI0
aI0
aI2
aI2
aI3
aI0
aI3
aI1
aI2
aI2
aI0
aI3
aI2
aI2
aI0
aI5
aI0
aI3
aI5
aI1
aI5
aI3
aI4
aI1
aI5
aI1
aI4
aI2
aI0
aa(lp130
I3
aI1
aI0
aI2
aI1
aI2
aI0
aI2
aI0
aI2
aI1
aI4
aI2
aI0
aI4
aI0
aI3
aI1
aI1
aI2
aI4
aI2
aI2
aI4
aI3
aI3
aI3
aI1
aI1
aI2
aI3
aI5
aI2
aI2
aI1
aI2
aI1
aI5
aI1
aI2
aI1
aI4
aI5
aI0
aI0
aI2
aI2
aI5
aI3
aI0
aa(lp131
I4
aI4
aI3
aI2
aI3
aI2
aI5
aI3
aI5
aI3
aI2
aI1
aI3
aI5
aI1
aI2
aI0
aI2
aI3
aI2
aI2
aI2
aI2
aI3
aI0
aI3
aI2
aI4
aI4
aI0
aI2
aI1
aI3
aI1
aI1
aI5
aI4
aI1
aI1
aI3
aI3
aI5
aI5
aI0
aI1
aI3
aI2
aI1
aI4
aI2
aa(lp132
I3
aI5
aI2
aI2
aI1
aI3
aI2
aI2
aI4
aI2
aI1
aI2
aI4
aI1
aI2
aI4
aI2
aI2
aI3
aI2
aI3
aI1
aI1
aI2
aI2
aI3
aI3
aI0
aI0
aI3
aI2
aI2
aI2
aI3
aI0
aI3
aI0
aI3
aI1
aI1
aI2
aI2
aI0
aI3
aI5
aI4
aI0
aI3
aI4
aI5
aa(lp133
I2
aI3
aI4
aI4
aI3
aI3
aI2
aI2
aI4
aI3
aI0
aI1
aI1
aI3
aI1
aI3
aI3
aI4
aI2
aI2
aI2
aI3
aI4
aI5
aI3
aI1
aI4
aI5
aI3
aI5
aI4
aI1
aI5
aI4
aI1
aI4
aI3
aI1
aI0
aI1
aI4
aI1
aI5
aI0
aI4
aI0
aI1
aI1
aI5
aI2
aa(lp134
I0
aI1
aI5
aI3
aI5
aI2
aI2
aI3
aI2
aI3
aI0
aI3
aI3
aI1
aI4
aI5
aI4
aI5
aI4
aI1
aI3
aI3
aI2
aI3
aI1
aI4
aI1
aI2
aI3
aI0
aI5
aI2
aI4
aI0
aI5
aI3
aI3
aI3
aI2
aI5
aI3
aI3
aI2
aI5
aI3
aI2
aI0
aI3
aI5
aI4
aa(lp135
I5
aI2
aI3
aI2
aI0
aI2
aI3
aI4
aI5
aI3
aI5
aI4
aI0
aI3
aI1
aI2
aI2
aI5
aI3
aI0
aI3
aI3
aI2
aI3
aI1
aI4
aI3
aI1
aI3
aI0
aI2
aI4
aI3
aI3
aI3
aI0
aI2
aI2
aI0
aI1
aI3
aI1
aI3
aI4
aI4
aI2
aI5
aI2
aI5
aI0
aa(lp136
I4
aI2
aI2
aI3
aI2
aI1
aI4
aI2
aI2
aI5
aI0
aI1
aI0
aI3
aI2
aI2
aI3
aI2
aI3
aI2
aI1
aI4
aI4
aI3
aI2
aI0
aI4
aI4
aI3
aI1
aI4
aI2
aI5
aI2
aI1
aI0
aI2
aI2
aI3
aI5
aI0
aI2
aI2
aI3
aI4
aI1
aI4
aI1
aI4
aI5
aa(lp137
I1
aI1
aI4
aI4
aI5
aI4
aI2
aI1
aI4
aI1
aI2
aI2
aI3
aI3
aI1
aI4
aI2
aI2
aI5
aI5
aI4
aI5
aI2
aI3
aI5
aI3
aI1
aI0
aI3
aI1
aI0
aI1
aI0
aI5
aI0
aI3
aI2
aI3
aI4
aI0
aI2
aI1
aI3
aI1
aI0
aI1
aI4
aI3
aI2
aI5
aa(lp138
I0
aI3
aI1
aI5
aI1
aI1
aI3
aI2
aI1
aI4
aI3
aI5
aI3
aI3
aI0
aI4
aI2
aI3
aI2
aI4
aI2
aI1
aI1
aI2
aI1
aI3
aI3
aI2
aI5
aI4
aI5
aI3
aI0
aI1
aI1
aI3
aI2
aI4
aI0
aI2
aI0
aI1
aI3
aI1
aI1
aI3
aI4
aI2
aI5
aI4
aa(lp139
I1
aI2
aI2
aI3
aI4
aI3
aI5
aI3
aI5
aI3
aI3
aI2
aI5
aI2
aI0
aI2
aI2
aI4
aI1
aI1
aI1
aI1
aI2
aI3
aI4
aI5
aI2
aI2
aI5
aI1
aI1
aI0
aI1
aI5
aI3
aI5
aI2
aI0
aI2
aI3
aI2
aI0
aI1
aI0
aI4
aI1
aI1
aI3
aI3
aI4
aa(lp140
I2
aI3
aI4
aI2
aI2
aI4
aI4
aI1
aI2
aI2
aI4
aI5
aI5
aI3
aI5
aI1
aI2
aI0
aI3
aI3
aI3
aI2
aI3
aI3
aI3
aI5
aI5
aI3
aI4
aI1
aI4
aI1
aI4
aI3
aI3
aI3
aI4
aI0
aI2
aI4
aI3
aI3
aI1
aI3
aI3
aI5
aI4
aI4
aI3
aI4
aa(lp141
I5
aI0
aI1
aI3
aI3
aI2
aI3
aI5
aI4
aI4
aI5
aI0
aI4
aI1
aI1
aI4
aI5
aI5
aI3
aI3
aI2
aI5
aI4
aI3
aI3
aI0
aI5
aI1
aI3
aI1
aI3
aI0
aI4
aI5
aI2
aI1
aI5
aI0
aI3
aI2
aI2
aI2
aI3
aI1
aI0
aI0
aI4
aI3
aI2
aI2
aa(lp142
I3
aI5
aI3
aI5
aI4
aI0
aI4
aI0
aI0
aI5
aI2
aI5
aI2
aI5
aI0
aI2
aI5
aI1
aI1
aI2
aI4
aI1
aI0
aI1
aI2
aI3
aI4
aI1
aI2
aI0
aI4
aI4
aI5
aI4
aI5
aI4
aI2
aI2
aI2
aI2
aI4
aI1
aI0
aI4
aI2
aI2
aI0
aI5
aI2
aI4
aa(lp143
I3
aI4
aI3
aI5
aI1
aI1
aI2
aI3
aI5
aI1
aI3
aI3
aI4
aI4
aI2
aI3
aI0
aI1
aI1
aI3
aI2
aI0
aI3
aI2
aI3
aI2
aI4
aI1
aI2
aI3
aI2
aI3
aI1
aI4
aI5
aI3
aI2
aI1
aI5
aI3
aI1
aI1
aI1
aI4
aI3
aI2
aI2
aI2
aI3
aI3
aa(lp144
I4
aI4
aI3
aI4
aI2
aI2
aI1
aI0
aI2
aI0
aI0
aI1
aI5
aI1
aI4
aI2
aI2
aI3
aI0
aI5
aI3
aI3
aI1
aI4
aI1
aI3
aI5
aI1
aI5
aI2
aI2
aI1
aI0
aI3
aI1
aI4
aI2
aI5
aI5
aI4
aI2
aI4
aI4
aI3
aI1
aI5
aI3
aI3
aI4
aI5
aa(lp145
I2
aI1
aI1
aI3
aI3
aI3
aI3
aI1
aI1
aI3
aI1
aI1
aI1
aI2
aI4
aI2
aI4
aI1
aI5
aI0
aI1
aI1
aI0
aI4
aI1
aI2
aI3
aI4
aI3
aI1
aI3
aI5
aI2
aI4
aI4
aI0
aI3
aI3
aI1
aI5
aI4
aI2
aI5
aI2
aI0
aI0
aI2
aI0
aI1
aI3
aa(lp146
I5
aI1
aI5
aI4
aI2
aI1
aI5
aI2
aI2
aI3
aI4
aI4
aI1
aI3
aI1
aI2
aI4
aI2
aI4
aI2
aI1
aI5
aI3
aI2
aI0
aI0
aI3
aI3
aI3
aI0
aI3
aI1
aI5
aI1
aI0
aI4
aI3
aI3
aI4
aI3
aI1
aI2
aI1
aI1
aI4
aI3
aI2
aI4
aI2
aI2
aa(lp147
I4
aI3
aI4
aI3
aI3
aI5
aI1
aI2
aI3
aI4
aI2
aI1
aI2
aI3
aI2
aI1
aI2
aI0
aI2
aI1
aI0
aI2
aI2
aI1
aI3
aI2
aI1
aI3
aI1
aI3
aI3
aI0
aI4
aI2
aI0
aI2
aI3
aI1
aI5
aI2
aI1
aI4
aI5
aI2
aI2
aI3
aI5
aI2
aI1
aI3
aa(lp148
I5
aI4
aI2
aI2
aI4
aI2
aI1
aI0
aI5
aI3
aI1
aI3
aI0
aI1
aI2
aI1
aI1
aI0
aI4
aI3
aI1
aI5
aI3
aI2
aI3
aI1
aI2
aI1
aI1
aI4
aI2
aI2
aI3
aI2
aI5
aI5
aI2
aI3
aI4
aI1
aI1
aI1
aI5
aI0
aI2
aI0
aI3
aI1
aI2
aI4
aa(lp149
I0
aI4
aI0
aI1
aI5
aI1
aI3
aI3
aI1
aI2
aI2
aI2
aI3
aI4
aI2
aI2
aI3
aI5
aI4
aI2
aI1
aI2
aI1
aI2
aI4
aI4
aI0
aI5
aI0
aI2
aI0
aI3
aI1
aI1
aI1
aI2
aI4
aI4
aI0
aI2
aI3
aI2
aI5
aI0
aI0
aI0
aI3
aI4
aI4
aI0
aa(lp150
I5
aI4
aI3
aI4
aI3
aI3
aI2
aI3
aI3
aI1
aI3
aI1
aI4
aI2
aI2
aI4
aI5
aI2
aI0
aI4
aI0
aI2
aI2
aI3
aI5
aI3
aI0
aI3
aI1
aI3
aI2
aI3
aI3
aI3
aI2
aI4
aI1
aI2
aI1
aI1
aI4
aI2
aI0
aI5
aI4
aI4
aI4
aI1
aI3
aI2
aaa(lp151
(lp152
I1
aI1
aI3
aI1
aI3
aI2
aI3
aI5
aI2
aI3
aI4
aI0
aI3
aI2
aI2
aI2
aI1
aI2
aI0
aI2
aI3
aI1
aI4
aI2
aI1
aI1
aI3
aI3
aI0
aI2
aI1
aI3
aI0
aI3
aI1
aI1
aI0
aI0
aI2
aI1
aI3
aI3
aI3
aI4
aI3
aI4
aI5
aI2
aI2
aI2
aa(lp153
I0
aI2
aI3
aI1
aI1
aI2
aI4
aI4
aI4
aI3
aI4
aI3
aI5
aI3
aI3
aI0
aI1
aI2
aI3
aI2
aI2
aI2
aI3
aI1
aI3
aI5
aI2
aI4
aI2
aI1
aI2
aI2
aI3
aI4
aI3
aI0
aI3
aI5
aI1
aI5
aI1
aI1
aI3
aI1
aI1
aI3
aI5
aI2
aI2
aI3
aa(lp154
I4
aI5
aI4
aI1
aI5
aI4
aI1
aI2
aI3
aI2
aI0
aI2
aI5
aI3
aI3
aI0
aI5
aI2
aI1
aI1
aI3
aI3
aI2
aI0
aI2
aI2
aI4
aI2
aI2
aI0
aI1
aI2
aI3
aI0
aI4
aI2
aI1
aI5
aI2
aI3
aI2
aI4
aI2
aI4
aI2
aI0
aI3
aI2
aI2
aI2
aa(lp155
I2
aI2
aI2
aI2
aI1
aI0
aI0
aI0
aI2
aI3
aI2
aI3
aI1
aI4
aI5
aI3
aI5
aI0
aI1
aI1
aI3
aI1
aI4
aI1
aI2
aI3
aI3
aI1
aI2
aI5
aI1
aI3
aI4
aI2
aI4
aI1
aI2
aI3
aI3
aI1
aI3
aI2
aI4
aI3
aI0
aI2
aI4
aI4
aI3
aI0
aa(lp156
I2
aI4
aI0
aI1
aI3
aI4
aI4
aI2
aI2
aI0
aI2
aI5
aI0
aI3
aI3
aI0
aI0
aI2
aI2
aI2
aI3
aI0
aI0
aI4
aI5
aI1
aI5
aI2
aI5
aI1
aI1
aI4
aI4
aI2
aI4
aI1
aI3
aI0
aI1
aI3
aI4
aI1
aI3
aI4
aI2
aI3
aI4
aI1
aI2
aI3
aa(lp157
I2
aI3
aI2
aI5
aI2
aI5
aI5
aI4
aI4
aI1
aI4
aI3
aI1
aI5
aI4
aI3
aI3
aI2
aI2
aI2
aI2
aI4
aI3
aI0
aI2
aI1
aI5
aI1
aI3
aI0
aI4
aI1
aI5
aI2
aI5
aI3
aI3
aI3
aI2
aI2
aI5
aI3
aI4
aI1
aI1
aI0
aI1
aI1
aI3
aI0
aa(lp158
I4
aI3
aI2
aI3
aI2
aI4
aI2
aI0
aI1
aI2
aI3
aI4
aI2
aI3
aI3
aI1
aI2
aI0
aI3
aI1
aI4
aI2
aI3
aI1
aI4
aI4
aI2
aI1
aI3
aI4
aI0
aI4
aI3
aI5
aI2
aI4
aI0
aI3
aI3
aI2
aI3
aI4
aI0
aI2
aI3
aI4
aI5
aI4
aI0
aI3
aa(lp159
I4
aI0
aI4
aI0
aI3
aI4
aI5
aI4
aI4
aI3
aI1
aI2
aI1
aI2
aI1
aI5
aI0
aI3
aI3
aI2
aI1
aI2
aI4
aI4
aI1
aI2
aI3
aI4
aI5
aI3
aI0
aI3
aI0
aI2
aI4
aI1
aI4
aI1
aI3
aI1
aI0
aI2
aI2
aI5
aI3
aI3
aI5
aI0
aI3
aI0
aa(lp160
I4
aI0
aI2
aI5
aI5
aI1
aI3
aI0
aI0
aI1
aI4
aI4
aI4
aI5
aI2
aI5
aI1
aI1
aI3
aI4
aI1
aI2
aI3
aI3
aI3
aI2
aI4
aI3
aI5
aI3
aI3
aI5
aI2
aI1
aI3
aI5
aI3
aI5
aI3
aI3
aI5
aI2
aI4
aI5
aI5
aI1
aI0
aI3
aI2
aI4
aa(lp161
I0
aI4
aI0
aI1
aI2
aI3
aI5
aI5
aI5
aI2
aI3
aI1
aI1
aI5
aI5
aI2
aI1
aI1
aI4
aI1
aI2
aI1
aI3
aI3
aI2
aI3
aI1
aI1
aI2
aI0
aI1
aI2
aI0
aI1
aI2
aI5
aI1
aI2
aI3
aI3
aI4
aI3
aI3
aI2
aI4
aI4
aI2
aI3
aI1
aI5
aa(lp162
I4
aI2
aI0
aI1
aI2
aI3
aI2
aI2
aI2
aI5
aI4
aI4
aI1
aI0
aI5
aI2
aI1
aI3
aI3
aI3
aI1
aI2
aI1
aI3
aI3
aI1
aI0
aI1
aI5
aI2
aI0
aI4
aI0
aI0
aI0
aI1
aI3
aI2
aI4
aI2
aI0
aI0
aI2
aI5
aI4
aI0
aI1
aI4
aI2
aI4
aa(lp163
I2
aI3
aI1
aI1
aI3
aI2
aI2
aI3
aI3
aI4
aI0
aI5
aI2
aI4
aI5
aI4
aI0
aI5
aI2
aI3
aI2
aI2
aI5
aI5
aI2
aI3
aI2
aI3
aI1
aI4
aI4
aI0
aI4
aI4
aI3
aI2
aI5
aI0
aI3
aI2
aI1
aI3
aI4
aI4
aI3
aI1
aI3
aI0
aI2
aI2
aa(lp164
I2
aI3
aI4
aI4
aI2
aI3
aI5
aI2
aI2
aI3
aI2
aI0
aI0
aI5
aI2
aI3
aI2
aI2
aI5
aI1
aI3
aI1
aI2
aI0
aI0
aI3
aI0
aI0
aI5
aI1
aI3
aI4
aI4
aI0
aI1
aI1
aI3
aI1
aI3
aI2
aI2
aI3
aI3
aI2
aI4
aI1
aI5
aI4
aI3
aI5
aa(lp165
I1
aI4
aI5
aI4
aI2
aI4
aI4
aI2
aI2
aI1
aI5
aI4
aI2
aI2
aI2
aI3
aI2
aI1
aI1
aI3
aI2
aI2
aI3
aI3
aI1
aI4
aI5
aI2
aI3
aI2
aI5
aI3
aI1
aI3
aI3
aI1
aI2
aI4
aI3
aI0
aI5
aI2
aI5
aI4
aI3
aI2
aI2
aI3
aI4
aI1
aa(lp166
I2
aI2
aI3
aI2
aI2
aI1
aI2
aI2
aI1
aI1
aI2
aI4
aI3
aI2
aI2
aI3
aI2
aI1
aI4
aI1
aI2
aI4
aI3
aI1
aI3
aI2
aI2
aI3
aI2
aI1
aI4
aI0
aI1
aI4
aI2
aI1
aI2
aI1
aI3
aI4
aI2
aI3
aI3
aI3
aI2
aI2
aI5
aI5
aI3
aI0
aa(lp167
I0
aI2
aI1
aI2
aI0
aI3
aI2
aI2
aI5
aI3
aI2
aI2
aI5
aI3
aI1
aI5
aI1
aI0
aI5
aI3
aI4
aI3
aI4
aI3
aI0
aI2
aI2
aI3
aI5
aI5
aI2
aI2
aI1
aI2
aI4
aI2
aI5
aI2
aI2
aI1
aI2
aI4
aI4
aI2
aI3
aI2
aI4
aI4
aI3
aI3
aa(lp168
I2
aI4
aI3
aI1
aI2
aI1
aI2
aI1
aI3
aI0
aI1
aI3
aI0
aI2
aI0
aI1
aI2
aI0
aI1
aI3
aI3
aI0
aI3
aI5
aI4
aI3
aI0
aI1
aI0
aI4
aI1
aI3
aI0
aI2
aI2
aI3
aI1
aI0
aI3
aI3
aI2
aI3
aI0
aI1
aI3
aI0
aI0
aI2
aI4
aI2
aa(lp169
I3
aI2
aI5
aI2
aI2
aI4
aI3
aI0
aI3
aI3
aI3
aI0
aI2
aI1
aI0
aI3
aI3
aI5
aI2
aI0
aI5
aI2
aI3
aI0
aI4
aI4
aI3
aI1
aI3
aI3
aI2
aI3
aI3
aI1
aI2
aI0
aI4
aI1
aI2
aI4
aI0
aI1
aI4
aI3
aI5
aI3
aI4
aI2
aI3
aI0
aa(lp170
I2
aI3
aI3
aI3
aI2
aI1
aI3
aI4
aI1
aI0
aI2
aI3
aI0
aI3
aI1
aI4
aI3
aI5
aI3
aI0
aI0
aI0
aI1
aI2
aI5
aI1
aI0
aI1
aI2
aI2
aI4
aI1
aI0
aI5
aI2
aI4
aI4
aI3
aI3
aI4
aI5
aI3
aI4
aI4
aI3
aI3
aI0
aI4
aI4
aI2
aa(lp171
I3
aI4
aI1
aI4
aI0
aI3
aI2
aI0
aI2
aI4
aI4
aI3
aI2
aI4
aI4
aI3
aI3
aI5
aI1
aI5
aI3
aI4
aI2
aI2
aI3
aI4
aI1
aI0
aI0
aI1
aI5
aI3
aI2
aI3
aI5
aI4
aI2
aI4
aI1
aI4
aI3
aI2
aI1
aI3
aI2
aI2
aI1
aI2
aI5
aI2
aa(lp172
I4
aI1
aI0
aI2
aI3
aI3
aI1
aI0
aI3
aI3
aI1
aI3
aI1
aI4
aI0
aI0
aI1
aI2
aI2
aI3
aI5
aI2
aI3
aI0
aI4
aI3
aI2
aI4
aI5
aI3
aI3
aI2
aI1
aI4
aI3
aI3
aI1
aI1
aI1
aI1
aI3
aI0
aI3
aI2
aI3
aI1
aI3
aI4
aI3
aI4
aa(lp173
I1
aI4
aI2
aI3
aI5
aI1
aI1
aI1
aI0
aI4
aI5
aI1
aI2
aI3
aI3
aI3
aI4
aI4
aI1
aI4
aI2
aI0
aI2
aI0
aI3
aI5
aI2
aI1
aI3
aI3
aI1
aI4
aI4
aI2
aI5
aI5
aI2
aI2
aI1
aI3
aI2
aI3
aI0
aI2
aI0
aI3
aI4
aI0
aI4
aI2
aa(lp174
I4
aI2
aI1
aI5
aI3
aI2
aI5
aI3
aI2
aI1
aI3
aI1
aI5
aI2
aI4
aI2
aI1
aI1
aI2
aI4
aI2
aI1
aI3
aI1
aI2
aI5
aI3
aI0
aI3
aI5
aI5
aI3
aI2
aI1
aI2
aI5
aI0
aI2
aI3
aI0
aI0
aI4
aI4
aI4
aI1
aI3
aI1
aI3
aI3
aI5
aa(lp175
I3
aI4
aI2
aI3
aI1
aI4
aI4
aI2
aI4
aI2
aI2
aI1
aI4
aI3
aI5
aI0
aI2
aI0
aI2
aI4
aI4
aI1
aI2
aI4
aI1
aI2
aI2
aI3
aI0
aI0
aI4
aI2
aI4
aI5
aI4
aI0
aI4
aI3
aI3
aI0
aI1
aI3
aI5
aI4
aI0
aI1
aI1
aI4
aI1
aI1
aaa(lp176
(lp177
I1
aI4
aI1
aI3
aI3
aI4
aI0
aI0
aI3
aI1
aI2
aI4
aI1
aI1
aI4
aI0
aI5
aI1
aI4
aI2
aI1
aI1
aI2
aI1
aI3
aI1
aI4
aI3
aI4
aI1
aI2
aI1
aI4
aI4
aI3
aI4
aI2
aI1
aI2
aI4
aI4
aI4
aI1
aI3
aI2
aI1
aI4
aI4
aI1
aI4
aa(lp178
I5
aI2
aI4
aI0
aI5
aI0
aI1
aI2
aI4
aI0
aI4
aI1
aI3
aI4
aI2
aI3
aI1
aI1
aI5
aI3
aI2
aI0
aI0
aI3
aI3
aI2
aI2
aI1
aI3
aI0
aI2
aI1
aI3
aI5
aI1
aI2
aI5
aI4
aI4
aI2
aI3
aI3
aI4
aI4
aI5
aI1
aI4
aI3
aI2
aI4
aa(lp179
I4
aI1
aI5
aI0
aI3
aI2
aI3
aI4
aI2
aI2
aI4
aI4
aI3
aI2
aI3
aI3
aI5
aI2
aI4
aI5
aI4
aI3
aI0
aI5
aI3
aI1
aI0
aI0
aI1
aI2
aI1
aI2
aI3
aI1
aI4
aI0
aI0
aI2
aI3
aI3
aI2
aI2
aI3
aI1
aI3
aI5
aI2
aI3
aI5
aI1
aa(lp180
I5
aI3
aI2
aI3
aI4
aI2
aI0
aI4
aI2
aI3
aI4
aI4
aI3
aI3
aI4
aI3
aI3
aI2
aI5
aI4
aI3
aI4
aI3
aI1
aI2
aI1
aI5
aI4
aI1
aI2
aI4
aI2
aI2
aI0
aI4
aI2
aI5
aI1
aI3
aI3
aI2
aI2
aI5
aI2
aI5
aI0
aI1
aI0
aI4
aI3
aa(lp181
I1
aI2
aI1
aI1
aI0
aI3
aI1
aI5
aI5
aI1
aI2
aI4
aI4
aI1
aI1
aI2
aI1
aI0
aI0
aI2
aI3
aI3
aI3
aI3
aI1
aI2
aI3
aI3
aI3
aI3
aI1
aI3
aI2
aI5
aI3
aI1
aI4
aI4
aI4
aI2
aI1
aI4
aI3
aI1
aI0
aI4
aI3
aI4
aI3
aI3
aa(lp182
I0
aI2
aI3
aI4
aI3
aI0
aI4
aI3
aI3
aI2
aI5
aI2
aI0
aI4
aI0
aI0
aI4
aI3
aI2
aI3
aI1
aI2
aI4
aI5
aI2
aI4
aI2
aI3
aI3
aI3
aI4
aI3
aI4
aI4
aI3
aI4
aI3
aI2
aI5
aI3
aI2
aI3
aI1
aI3
aI0
aI2
aI1
aI2
aI4
aI3
aa(lp183
I0
aI2
aI2
aI1
aI0
aI2
aI4
aI3
aI2
aI4
aI3
aI3
aI1
aI4
aI1
aI3
aI3
aI3
aI2
aI3
aI0
aI3
aI5
aI2
aI1
aI3
aI4
aI2
aI3
aI1
aI4
aI4
aI5
aI1
aI0
aI0
aI2
aI0
aI3
aI4
aI3
aI2
aI2
aI4
aI3
aI2
aI0
aI3
aI5
aI2
aa(lp184
I0
aI2
aI3
aI1
aI2
aI2
aI1
aI3
aI0
aI5
aI2
aI0
aI2
aI3
aI4
aI2
aI1
aI4
aI3
aI3
aI1
aI2
aI0
aI1
aI2
aI4
aI4
aI2
aI0
aI2
aI5
aI3
aI2
aI2
aI1
aI2
aI3
aI3
aI4
aI0
aI1
aI1
aI4
aI2
aI2
aI2
aI0
aI3
aI1
aI4
aa(lp185
I4
aI2
aI3
aI4
aI3
aI4
aI0
aI5
aI1
aI3
aI2
aI3
aI0
aI4
aI2
aI0
aI5
aI3
aI0
aI4
aI2
aI3
aI2
aI1
aI1
aI3
aI2
aI1
aI4
aI3
aI3
aI2
aI3
aI4
aI1
aI0
aI3
aI4
aI3
aI3
aI0
aI2
aI0
aI4
aI4
aI3
aI0
aI3
aI2
aI0
aa(lp186
I5
aI1
aI4
aI0
aI2
aI3
aI3
aI0
aI4
aI3
aI3
aI0
aI4
aI4
aI4
aI3
aI5
aI3
aI2
aI2
aI1
aI1
aI3
aI2
aI1
aI1
aI5
aI2
aI4
aI4
aI4
aI1
aI1
aI2
aI4
aI0
aI1
aI2
aI3
aI2
aI4
aI0
aI3
aI5
aI2
aI3
aI2
aI3
aI3
aI1
aa(lp187
I2
aI3
aI3
aI4
aI1
aI0
aI5
aI1
aI0
aI1
aI5
aI2
aI1
aI3
aI1
aI4
aI1
aI1
aI1
aI1
aI2
aI2
aI0
aI3
aI0
aI3
aI4
aI1
aI1
aI1
aI2
aI4
aI3
aI1
aI5
aI2
aI3
aI2
aI3
aI2
aI0
aI3
aI0
aI1
aI1
aI2
aI1
aI2
aI1
aI4
aa(lp188
I3
aI3
aI2
aI2
aI2
aI3
aI2
aI0
aI4
aI1
aI1
aI5
aI5
aI1
aI4
aI1
aI0
aI2
aI1
aI5
aI0
aI5
aI5
aI2
aI1
aI2
aI0
aI3
aI4
aI0
aI0
aI0
aI3
aI1
aI3
aI1
aI4
aI2
aI3
aI4
aI1
aI1
aI1
aI3
aI3
aI1
aI3
aI3
aI0
aI2
aa(lp189
I1
aI4
aI3
aI4
aI5
aI1
aI5
aI3
aI5
aI4
aI1
aI4
aI0
aI5
aI1
aI1
aI2
aI1
aI5
aI2
aI3
aI5
aI5
aI0
aI4
aI0
aI3
aI5
aI4
aI4
aI1
aI3
aI3
aI3
aI4
aI1
aI5
aI5
aI4
aI4
aI1
aI5
aI0
aI4
aI1
aI3
aI3
aI3
aI1
aI4
aa(lp190
I2
aI2
aI1
aI4
aI0
aI3
aI1
aI3
aI2
aI1
aI4
aI2
aI1
aI2
aI1
aI2
aI1
aI4
aI1
aI1
aI4
aI1
aI5
aI2
aI1
aI1
aI1
aI3
aI3
aI3
aI1
aI3
aI5
aI3
aI3
aI0
aI2
aI5
aI0
aI5
aI5
aI3
aI4
aI0
aI1
aI4
aI5
aI2
aI0
aI3
aa(lp191
I3
aI3
aI4
aI0
aI5
aI5
aI2
aI3
aI4
aI3
aI5
aI2
aI5
aI3
aI3
aI2
aI1
aI3
aI3
aI3
aI3
aI2
aI4
aI3
aI2
aI0
aI4
aI3
aI2
aI5
aI0
aI1
aI1
aI4
aI3
aI3
aI2
aI3
aI3
aI4
aI3
aI1
aI3
aI1
aI2
aI1
aI2
aI3
aI3
aI5
aa(lp192
I4
aI4
aI4
aI3
aI1
aI3
aI2
aI3
aI3
aI5
aI2
aI4
aI0
aI0
aI1
aI2
aI1
aI3
aI1
aI3
aI3
aI0
aI4
aI1
aI1
aI5
aI4
aI2
aI0
aI4
aI5
aI1
aI5
aI5
aI4
aI2
aI3
aI4
aI4
aI0
aI3
aI0
aI0
aI0
aI5
aI1
aI2
aI1
aI0
aI3
aa(lp193
I3
aI4
aI3
aI2
aI2
aI0
aI0
aI5
aI4
aI1
aI1
aI5
aI2
aI0
aI2
aI3
aI0
aI4
aI2
aI4
aI4
aI3
aI1
aI2
aI2
aI4
aI3
aI4
aI3
aI4
aI2
aI4
aI5
aI1
aI2
aI3
aI2
aI5
aI1
aI5
aI5
aI1
aI2
aI3
aI3
aI1
aI0
aI3
aI0
aI1
aa(lp194
I3
aI2
aI2
aI5
aI2
aI3
aI2
aI5
aI3
aI2
aI1
aI1
aI4
aI4
aI3
aI0
aI4
aI5
aI5
aI5
aI1
aI5
aI4
aI4
aI0
aI4
aI3
aI4
aI4
aI4
aI5
aI4
aI3
aI5
aI3
aI5
aI0
aI1
aI5
aI2
aI3
aI4
aI4
aI2
aI0
aI2
aI2
aI3
aI5
aI1
aa(lp195
I1
aI1
aI2
aI4
aI3
aI2
aI2
aI2
aI2
aI4
aI0
aI1
aI2
aI4
aI0
aI3
aI3
aI2
aI4
aI5
aI5
aI5
aI3
aI4
aI3
aI3
aI1
aI2
aI3
aI3
aI1
aI3
aI3
aI2
aI0
aI3
aI0
aI3
aI0
aI2
aI1
aI4
aI1
aI4
aI2
aI1
aI4
aI5
aI1
aI2
aa(lp196
I1
aI1
aI1
aI1
aI2
aI3
aI2
aI4
aI3
aI1
aI1
aI3
aI3
aI2
aI3
aI4
aI3
aI1
aI1
aI3
aI0
aI4
aI1
aI2
aI1
aI2
aI0
aI0
aI3
aI1
aI3
aI4
aI5
aI3
aI4
aI4
aI4
aI5
aI5
aI4
aI2
aI3
aI5
aI1
aI3
aI1
aI3
aI4
aI4
aI2
aa(lp197
I5
aI3
aI1
aI2
aI5
aI3
aI5
aI4
aI3
aI3
aI3
aI2
aI4
aI1
aI2
aI3
aI1
aI4
aI2
aI2
aI5
aI2
aI1
aI0
aI5
aI2
aI3
aI3
aI1
aI3
aI3
aI0
aI4
aI3
aI0
aI5
aI1
aI2
aI0
aI1
aI0
aI1
aI0
aI1
aI4
aI5
aI2
aI2
aI2
aI1
aa(lp198
I4
aI4
aI1
aI0
aI2
aI3
aI0
aI0
aI1
aI0
aI0
aI1
aI5
aI4
aI3
aI0
aI3
aI0
aI0
aI4
aI2
aI1
aI2
aI0
aI5
aI4
aI2
aI4
aI0
aI5
aI5
aI3
aI4
aI1
aI4
aI3
aI1
aI0
aI2
aI0
aI4
aI4
aI1
aI2
aI1
aI1
aI3
aI5
aI0
aI2
aa(lp199
I1
aI4
aI3
aI4
aI1
aI1
aI1
aI4
aI2
aI3
aI4
aI4
aI2
aI4
aI5
aI1
aI0
aI3
aI2
aI4
aI4
aI3
aI3
aI1
aI0
aI3
aI0
aI1
aI0
aI1
aI3
aI5
aI2
aI1
aI2
aI3
aI4
aI4
aI3
aI2
aI3
aI5
aI4
aI5
aI0
aI1
aI2
aI3
aI3
aI5
aa(lp200
I3
aI1
aI3
aI3
aI4
aI3
aI1
aI1
aI3
aI1
aI4
aI0
aI1
aI1
aI5
aI1
aI4
aI0
aI4
aI2
aI1
aI3
aI2
aI4
aI1
aI1
aI2
aI2
aI2
aI2
aI0
aI2
aI1
aI3
aI2
aI1
aI5
aI5
aI4
aI2
aI2
aI0
aI1
aI2
aI3
aI1
aI3
aI2
aI2
aI5
aaa(lp201
(lp202
I5
aI5
aI1
aI3
aI4
aI3
aI4
aI1
aI1
aI1
aI2
aI2
aI4
aI3
aI4
aI3
aI0
aI3
aI1
aI5
aI2
aI3
aI4
aI1
aI4
aI1
aI3
aI0
aI3
aI5
aI4
aI3
aI2
aI3
aI1
aI0
aI3
aI2
aI3
aI4
aI2
aI1
aI5
aI2
aI4
aI4
aI0
aI3
aI1
aI2
aa(lp203
I1
aI3
aI3
aI4
aI2
aI3
aI2
aI3
aI3
aI0
aI2
aI3
aI4
aI1
aI3
aI4
aI3
aI1
aI5
aI2
aI4
aI2
aI4
aI0
aI2
aI2
aI4
aI2
aI2
aI2
aI1
aI2
aI5
aI0
aI3
aI4
aI5
aI4
aI0
aI5
aI3
aI3
aI2
aI4
aI3
aI1
aI1
aI0
aI3
aI2
aa(lp204
I2
aI4
aI2
aI2
aI0
aI0
aI0
aI3
aI4
aI4
aI2
aI5
aI3
aI0
aI1
aI1
aI4
aI2
aI1
aI3
aI2
aI2
aI4
aI4
aI1
aI2
aI3
aI0
aI0
aI2
aI0
aI2
aI2
aI4
aI5
aI2
aI5
aI1
aI1
aI4
aI2
aI0
aI3
aI2
aI5
aI2
aI1
aI4
aI4
aI1
aa(lp205
I1
aI2
aI2
aI0
aI4
aI4
aI2
aI4
aI0
aI2
aI1
aI4
aI2
aI1
aI4
aI4
aI0
aI1
aI4
aI1
aI0
aI4
aI2
aI5
aI4
aI2
aI1
aI2
aI2
aI3
aI2
aI3
aI3
aI3
aI0
aI5
aI5
aI2
aI2
aI4
aI3
aI1
aI4
aI2
aI5
aI3
aI2
aI4
aI2
aI5
aa(lp206
I3
aI1
aI3
aI4
aI1
aI3
aI5
aI4
aI2
aI1
aI4
aI2
aI4
aI0
aI2
aI1
aI4
aI0
aI0
aI3
aI4
aI4
aI2
aI5
aI5
aI4
aI2
aI2
aI3
aI1
aI2
aI4
aI4
aI3
aI4
aI2
aI3
aI0
aI1
aI5
aI3
aI3
aI0
aI3
aI1
aI0
aI2
aI3
aI4
aI1
aa(lp207
I1
aI3
aI3
aI2
aI4
aI1
aI0
aI1
aI4
aI2
aI1
aI0
aI1
aI0
aI2
aI2
aI5
aI1
aI3
aI4
aI2
aI1
aI3
aI5
aI4
aI0
aI5
aI0
aI4
aI2
aI3
aI0
aI4
aI0
aI2
aI1
aI4
aI5
aI0
aI2
aI2
aI2
aI5
aI4
aI2
aI1
aI1
aI1
aI3
aI1
aa(lp208
I3
aI1
aI3
aI2
aI0
aI2
aI0
aI2
aI2
aI3
aI2
aI4
aI3
aI3
aI1
aI0
aI4
aI4
aI2
aI3
aI2
aI4
aI3
aI3
aI0
aI1
aI5
aI3
aI5
aI4
aI5
aI3
aI2
aI1
aI3
aI2
aI0
aI1
aI0
aI0
aI3
aI1
aI3
aI3
aI5
aI5
aI5
aI2
aI3
aI0
aa(lp209
I4
aI5
aI2
aI5
aI1
aI3
aI4
aI2
aI3
aI2
aI4
aI5
aI4
aI1
aI4
aI5
aI3
aI3
aI2
aI1
aI2
aI5
aI2
aI3
aI1
aI0
aI1
aI1
aI5
aI1
aI4
aI3
aI0
aI1
aI1
aI4
aI4
aI3
aI2
aI4
aI1
aI0
aI3
aI4
aI0
aI5
aI1
aI1
aI4
aI2
aa(lp210
I1
aI1
aI1
aI1
aI4
aI5
aI0
aI3
aI4
aI4
aI5
aI2
aI0
aI2
aI3
aI4
aI1
aI3
aI0
aI2
aI4
aI2
aI2
aI3
aI5
aI1
aI3
aI5
aI2
aI3
aI1
aI4
aI2
aI2
aI0
aI3
aI1
aI4
aI3
aI1
aI1
aI0
aI2
aI0
aI3
aI0
aI5
aI2
aI3
aI4
aa(lp211
I2
aI2
aI4
aI0
aI3
aI4
aI5
aI3
aI3
aI2
aI3
aI3
aI4
aI4
aI2
aI4
aI5
aI3
aI0
aI0
aI3
aI3
aI1
aI1
aI3
aI1
aI1
aI3
aI3
aI2
aI2
aI0
aI3
aI5
aI4
aI4
aI2
aI3
aI0
aI3
aI4
aI3
aI3
aI4
aI2
aI0
aI4
aI2
aI5
aI4
aa(lp212
I4
aI1
aI4
aI3
aI5
aI0
aI2
aI2
aI1
aI3
aI2
aI1
aI2
aI1
aI1
aI2
aI0
aI4
aI4
aI1
aI1
aI2
aI2
aI3
aI3
aI2
aI0
aI3
aI2
aI1
aI2
aI5
aI2
aI3
aI4
aI3
aI3
aI3
aI4
aI2
aI2
aI3
aI1
aI3
aI0
aI4
aI3
aI3
aI4
aI4
aa(lp213
I3
aI0
aI2
aI1
aI2
aI4
aI4
aI5
aI2
aI1
aI5
aI5
aI0
aI2
aI2
aI2
aI2
aI2
aI0
aI3
aI4
aI3
aI0
aI1
aI3
aI2
aI3
aI2
aI3
aI5
aI3
aI4
aI1
aI3
aI2
aI1
aI3
aI4
aI1
aI0
aI4
aI4
aI4
aI3
aI2
aI5
aI5
aI5
aI3
aI3
aa(lp214
I2
aI3
aI4
aI4
aI2
aI2
aI1
aI2
aI1
aI0
aI5
aI2
aI3
aI1
aI5
aI1
aI2
aI3
aI1
aI1
aI2
aI5
aI2
aI3
aI2
aI5
aI1
aI4
aI2
aI1
aI4
aI4
aI4
aI4
aI3
aI0
aI3
aI2
aI1
aI3
aI0
aI3
aI2
aI4
aI4
aI5
aI4
aI3
aI3
aI3
aa(lp215
I3
aI4
aI2
aI3
aI5
aI2
aI4
aI3
aI3
aI2
aI3
aI3
aI4
aI1
aI2
aI2
aI2
aI5
aI2
aI5
aI4
aI2
aI1
aI5
aI3
aI0
aI3
aI0
aI3
aI3
aI5
aI2
aI2
aI5
aI3
aI1
aI2
aI0
aI3
aI2
aI4
aI3
aI4
aI3
aI3
aI1
aI5
aI3
aI1
aI3
aa(lp216
I2
aI1
aI0
aI4
aI1
aI3
aI2
aI2
aI1
aI4
aI2
aI4
aI3
aI4
aI4
aI1
aI0
aI3
aI5
aI1
aI1
aI2
aI3
aI4
aI0
aI3
aI1
aI5
aI1
aI2
aI2
aI0
aI2
aI3
aI4
aI1
aI5
aI1
aI2
aI3
aI0
aI4
aI4
aI3
aI4
aI4
aI3
aI3
aI5
aI2
aa(lp217
I4
aI3
aI3
aI1
aI2
aI1
aI3
aI5
aI2
aI0
aI0
aI3
aI2
aI4
aI2
aI4
aI5
aI4
aI0
aI3
aI2
aI3
aI0
aI3
aI3
aI1
aI4
aI5
aI2
aI5
aI2
aI2
aI4
aI1
aI5
aI2
aI4
aI3
aI3
aI2
aI3
aI1
aI3
aI4
aI5
aI1
aI0
aI1
aI1
aI1
aa(lp218
I2
aI4
aI4
aI5
aI1
aI2
aI3
aI3
aI5
aI5
aI3
aI3
aI2
aI1
aI4
aI2
aI2
aI1
aI0
aI5
aI4
aI0
aI4
aI5
aI1
aI3
aI5
aI5
aI3
aI1
aI2
aI3
aI1
aI3
aI2
aI3
aI0
aI4
aI2
aI4
aI4
aI4
aI4
aI2
aI3
aI4
aI1
aI0
aI4
aI1
aa(lp219
I1
aI4
aI3
aI2
aI4
aI1
aI4
aI1
aI4
aI2
aI2
aI2
aI5
aI4
aI2
aI1
aI4
aI2
aI5
aI1
aI1
aI3
aI1
aI0
aI2
aI2
aI2
aI4
aI1
aI1
aI0
aI3
aI2
aI4
aI4
aI1
aI1
aI3
aI1
aI1
aI2
aI2
aI5
aI4
aI1
aI0
aI1
aI2
aI2
aI2
aa(lp220
I3
aI4
aI4
aI2
aI0
aI0
aI3
aI3
aI2
aI3
aI4
aI0
aI1
aI5
aI1
aI3
aI3
aI5
aI0
aI3
aI1
aI4
aI0
aI2
aI1
aI3
aI2
aI2
aI1
aI0
aI4
aI0
aI1
aI4
aI4
aI3
aI4
aI2
aI5
aI0
aI5
aI2
aI3
aI3
aI0
aI5
aI2
aI1
aI5
aI0
aa(lp221
I3
aI2
aI1
aI3
aI2
aI4
aI3
aI1
aI5
aI4
aI0
aI5
aI1
aI1
aI1
aI0
aI2
aI3
aI2
aI1
aI2
aI2
aI2
aI4
aI4
aI3
aI4
aI3
aI0
aI1
aI0
aI3
aI4
aI3
aI5
aI1
aI0
aI2
aI5
aI3
aI4
aI0
aI2
aI5
aI5
aI5
aI5
aI3
aI0
aI4
aa(lp222
I5
aI3
aI5
aI2
aI1
aI1
aI5
aI2
aI4
aI4
aI3
aI2
aI0
aI3
aI4
aI0
aI1
aI1
aI4
aI3
aI3
aI2
aI3
aI0
aI0
aI4
aI2
aI3
aI4
aI0
aI3
aI1
aI3
aI2
aI3
aI3
aI5
aI1
aI4
aI2
aI3
aI2
aI3
aI3
aI1
aI2
aI3
aI0
aI3
aI3
aa(lp223
I3
aI2
aI2
aI4
aI1
aI1
aI5
aI1
aI3
aI2
aI4
aI2
aI4
aI4
aI2
aI4
aI4
aI2
aI5
aI5
aI2
aI3
aI2
aI1
aI2
aI3
aI0
aI0
aI4
aI5
aI3
aI3
aI0
aI2
aI1
aI4
aI3
aI3
aI1
aI3
aI4
aI5
aI1
aI5
aI3
aI0
aI2
aI2
aI3
aI2
aa(lp224
I1
aI3
aI2
aI0
aI4
aI3
aI3
aI4
aI3
aI0
aI5
aI5
aI4
aI2
aI2
aI2
aI2
aI1
aI4
aI1
aI0
aI1
aI0
aI4
aI5
aI3
aI0
aI2
aI1
aI3
aI3
aI1
aI4
aI5
aI1
aI3
aI5
aI3
aI4
aI5
aI2
aI4
aI3
aI3
aI2
aI0
aI3
aI4
aI2
aI3
aa(lp225
I1
aI4
aI5
aI2
aI2
aI4
aI2
aI5
aI1
aI3
aI3
aI2
aI2
aI3
aI2
aI4
aI3
aI4
aI2
aI3
aI4
aI2
aI4
aI3
aI2
aI1
aI2
aI4
aI2
aI3
aI0
aI4
aI3
aI2
aI0
aI4
aI1
aI1
aI3
aI3
aI2
aI2
aI2
aI3
aI2
aI1
aI5
aI4
aI3
aI2
aaa(lp226
(lp227
I3
aI5
aI3
aI1
aI1
aI2
aI3
aI3
aI2
aI5
aI1
aI1
aI3
aI2
aI3
aI4
aI0
aI1
aI2
aI0
aI0
aI3
aI5
aI2
aI5
aI5
aI5
aI3
aI2
aI4
aI1
aI2
aI5
aI4
aI5
aI3
aI1
aI3
aI2
aI1
aI2
aI5
aI1
aI2
aI2
aI4
aI2
aI4
aI1
aI0
aa(lp228
I3
aI2
aI2
aI1
aI4
aI3
aI5
aI0
aI3
aI1
aI1
aI1
aI2
aI4
aI1
aI2
aI2
aI5
aI2
aI0
aI2
aI3
aI0
aI0
aI4
aI0
aI0
aI2
aI4
aI4
aI4
aI2
aI5
aI4
aI2
aI2
aI1
aI4
aI5
aI0
aI3
aI5
aI3
aI3
aI2
aI2
aI5
aI5
aI0
aI3
aa(lp229
I3
aI1
aI1
aI3
aI0
aI4
aI2
aI2
aI2
aI1
aI0
aI3
aI1
aI3
aI1
aI0
aI3
aI2
aI2
aI3
aI0
aI1
aI4
aI3
aI3
aI4
aI2
aI0
aI3
aI1
aI3
aI4
aI4
aI3
aI4
aI2
aI4
aI2
aI3
aI2
aI0
aI4
aI3
aI2
aI3
aI3
aI2
aI3
aI3
aI0
aa(lp230
I1
aI0
aI3
aI3
aI1
aI1
aI2
aI4
aI1
aI2
aI3
aI4
aI4
aI3
aI0
aI3
aI1
aI2
aI3
aI3
aI4
aI4
aI5
aI5
aI2
aI0
aI1
aI3
aI3
aI2
aI2
aI0
aI1
aI4
aI4
aI5
aI4
aI3
aI1
aI4
aI2
aI5
aI3
aI2
aI4
aI4
aI2
aI1
aI5
aI3
aa(lp231
I4
aI1
aI4
aI1
aI0
aI4
aI1
aI1
aI1
aI2
aI4
aI2
aI3
aI2
aI3
aI2
aI0
aI2
aI4
aI0
aI4
aI2
aI1
aI2
aI0
aI3
aI2
aI2
aI5
aI4
aI4
aI2
aI1
aI2
aI4
aI1
aI2
aI2
aI3
aI0
aI0
aI3
aI0
aI5
aI3
aI1
aI5
aI1
aI5
aI0
aa(lp232
I1
aI2
aI3
aI2
aI0
aI5
aI1
aI1
aI1
aI1
aI1
aI1
aI1
aI1
aI2
aI3
aI2
aI3
aI3
aI1
aI1
aI4
aI1
aI4
aI4
aI2
aI3
aI3
aI0
aI3
aI5
aI2
aI1
aI3
aI3
aI4
aI4
aI2
aI3
aI1
aI3
aI5
aI5
aI3
aI4
aI5
aI5
aI3
aI0
aI4
aa(lp233
I3
aI3
aI1
aI3
aI1
aI3
aI4
aI0
aI5
aI1
aI4
aI1
aI2
aI3
aI1
aI2
aI2
aI2
aI3
aI2
aI1
aI2
aI0
aI5
aI2
aI5
aI5
aI4
aI2
aI2
aI3
aI4
aI2
aI4
aI1
aI1
aI4
aI0
aI3
aI3
aI2
aI5
aI2
aI2
aI4
aI3
aI5
aI2
aI1
aI5
aa(lp234
I4
aI2
aI2
aI3
aI1
aI2
aI1
aI5
aI5
aI5
aI2
aI3
aI3
aI4
aI2
aI5
aI3
aI1
aI0
aI1
aI3
aI1
aI2
aI5
aI5
aI2
aI5
aI1
aI4
aI2
aI2
aI3
aI4
aI2
aI3
aI2
aI2
aI5
aI5
aI1
aI1
aI5
aI1
aI5
aI1
aI0
aI3
aI5
aI2
aI0
aa(lp235
I2
aI2
aI2
aI4
aI2
aI2
aI1
aI5
aI3
aI1
aI0
aI4
aI0
aI1
aI4
aI3
aI5
aI1
aI5
aI4
aI4
aI0
aI4
aI5
aI3
aI2
aI2
aI1
aI4
aI0
aI4
aI3
aI4
aI2
aI3
aI3
aI4
aI1
aI3
aI4
aI5
aI1
aI4
aI4
aI2
aI0
aI4
aI3
aI5
aI0
aa(lp236
I4
aI1
aI2
aI2
aI5
aI1
aI0
aI4
aI5
aI2
aI2
aI0
aI0
aI3
aI1
aI1
aI1
aI4
aI2
aI3
aI1
aI3
aI5
aI4
aI3
aI5
aI5
aI4
aI2
aI5
aI1
aI3
aI1
aI3
aI0
aI2
aI0
aI4
aI4
aI3
aI2
aI2
aI0
aI2
aI2
aI1
aI3
aI2
aI5
aI0
aa(lp237
I5
aI3
aI3
aI5
aI2
aI1
aI4
aI5
aI0
aI4
aI2
aI4
aI3
aI5
aI2
aI3
aI2
aI3
aI0
aI1
aI3
aI2
aI2
aI2
aI0
aI3
aI3
aI0
aI3
aI0
aI1
aI4
aI5
aI3
aI2
aI3
aI2
aI0
aI5
aI3
aI3
aI5
aI3
aI3
aI0
aI5
aI4
aI3
aI4
aI4
aa(lp238
I5
aI2
aI5
aI2
aI1
aI3
aI4
aI3
aI0
aI3
aI1
aI4
aI3
aI3
aI1
aI2
aI2
aI4
aI3
aI1
aI3
aI1
aI1
aI2
aI5
aI5
aI4
aI3
aI1
aI3
aI4
aI3
aI4
aI4
aI3
aI4
aI3
aI4
aI3
aI0
aI0
aI3
aI3
aI3
aI5
aI3
aI1
aI2
aI3
aI1
aa(lp239
I3
aI2
aI1
aI4
aI1
aI0
aI1
aI1
aI2
aI1
aI2
aI1
aI3
aI5
aI3
aI1
aI2
aI4
aI3
aI0
aI3
aI3
aI4
aI0
aI3
aI3
aI2
aI4
aI3
aI5
aI3
aI3
aI4
aI3
aI3
aI5
aI2
aI2
aI4
aI2
aI2
aI4
aI0
aI2
aI4
aI3
aI1
aI2
aI5
aI0
aa(lp240
I3
aI2
aI2
aI2
aI3
aI1
aI2
aI3
aI1
aI3
aI0
aI5
aI4
aI0
aI0
aI3
aI2
aI2
aI2
aI1
aI2
aI2
aI2
aI2
aI4
aI3
aI2
aI3
aI4
aI4
aI3
aI5
aI0
aI0
aI1
aI3
aI5
aI3
aI1
aI3
aI4
aI4
aI1
aI1
aI1
aI3
aI3
aI0
aI1
aI4
aa(lp241
I0
aI0
aI0
aI2
aI3
aI0
aI3
aI0
aI1
aI1
aI4
aI2
aI0
aI5
aI4
aI0
aI3
aI5
aI5
aI2
aI1
aI0
aI1
aI1
aI1
aI0
aI2
aI2
aI3
aI2
aI4
aI4
aI4
aI1
aI2
aI3
aI3
aI3
aI4
aI2
aI3
aI1
aI2
aI0
aI2
aI2
aI2
aI3
aI1
aI4
aa(lp242
I2
aI4
aI0
aI3
aI3
aI5
aI3
aI2
aI3
aI2
aI3
aI4
aI5
aI1
aI1
aI0
aI3
aI2
aI4
aI0
aI2
aI2
aI3
aI2
aI2
aI2
aI2
aI5
aI2
aI2
aI2
aI5
aI5
aI1
aI4
aI0
aI2
aI5
aI3
aI0
aI1
aI3
aI1
aI4
aI3
aI0
aI2
aI1
aI2
aI1
aa(lp243
I2
aI1
aI2
aI2
aI1
aI4
aI3
aI4
aI2
aI1
aI2
aI1
aI0
aI1
aI1
aI1
aI0
aI4
aI5
aI0
aI1
aI5
aI5
aI1
aI2
aI3
aI1
aI5
aI4
aI1
aI2
aI0
aI1
aI2
aI1
aI5
aI0
aI2
aI2
aI1
aI2
aI2
aI4
aI3
aI5
aI1
aI3
aI1
aI3
aI3
aa(lp244
I3
aI1
aI4
aI4
aI3
aI3
aI4
aI3
aI4
aI5
aI2
aI0
aI4
aI4
aI3
aI5
aI5
aI5
aI4
aI0
aI2
aI1
aI5
aI1
aI3
aI5
aI1
aI5
aI1
aI2
aI2
aI1
aI3
aI3
aI2
aI0
aI2
aI4
aI2
aI2
aI4
aI2
aI4
aI5
aI0
aI0
aI1
aI0
aI3
aI1
aa(lp245
I4
aI5
aI4
aI4
aI0
aI2
aI1
aI2
aI2
aI0
aI3
aI3
aI1
aI2
aI3
aI5
aI3
aI5
aI2
aI5
aI1
aI4
aI4
aI1
aI0
aI4
aI3
aI3
aI1
aI4
aI3
aI3
aI2
aI1
aI2
aI4
aI1
aI4
aI5
aI5
aI4
aI1
aI2
aI4
aI0
aI5
aI2
aI0
aI3
aI3
aa(lp246
I4
aI1
aI2
aI2
aI5
aI5
aI5
aI2
aI1
aI4
aI3
aI3
aI2
aI5
aI5
aI4
aI1
aI2
aI3
aI4
aI1
aI1
aI3
aI0
aI2
aI2
aI3
aI3
aI4
aI1
aI0
aI3
aI0
aI2
aI1
aI3
aI5
aI0
aI3
aI1
aI3
aI1
aI3
aI3
aI3
aI1
aI1
aI3
aI4
aI3
aa(lp247
I3
aI0
aI5
aI0
aI3
aI3
aI5
aI2
aI3
aI0
aI1
aI1
aI1
aI1
aI5
aI2
aI3
aI4
aI2
aI5
aI3
aI0
aI3
aI0
aI1
aI3
aI3
aI3
aI1
aI0
aI2
aI3
aI5
aI3
aI3
aI1
aI2
aI1
aI4
aI2
aI0
aI4
aI5
aI1
aI4
aI2
aI2
aI0
aI0
aI3
aa(lp248
I3
aI3
aI1
aI1
aI3
aI5
aI3
aI1
aI1
aI1
aI4
aI1
aI3
aI1
aI1
aI2
aI4
aI3
aI4
aI0
aI5
aI3
aI1
aI3
aI3
aI2
aI0
aI5
aI3
aI4
aI0
aI4
aI2
aI3
aI4
aI2
aI4
aI3
aI2
aI3
aI4
aI2
aI3
aI4
aI4
aI1
aI3
aI3
aI3
aI0
aa(lp249
I1
aI3
aI0
aI1
aI4
aI4
aI5
aI3
aI3
aI3
aI2
aI4
aI4
aI2
aI5
aI4
aI1
aI1
aI2
aI4
aI2
aI5
aI4
aI3
aI1
aI4
aI1
aI1
aI3
aI2
aI4
aI4
aI4
aI3
aI3
aI2
aI2
aI1
aI4
aI3
aI3
aI4
aI1
aI3
aI3
aI0
aI2
aI2
aI1
aI3
aa(lp250
I2
aI2
aI5
aI0
aI5
aI3
aI2
aI3
aI5
aI2
aI2
aI1
aI1
aI1
aI3
aI3
aI0
aI1
aI2
aI2
aI4
aI2
aI3
aI2
aI2
aI3
aI3
aI5
aI2
aI1
aI5
aI4
aI0
aI2
aI1
aI5
aI2
aI0
aI3
aI1
aI4
aI2
aI3
aI0
aI3
aI3
aI0
aI3
aI3
aI2
aaa.